
target/riscv64gc-unknown-none-elf/release/os:	file format elf64-littleriscv

Disassembly of section .text:

0000000080200000 <stext>:
; stext():
80200000: 17 e1 01 00  	auipc	sp, 30
80200004: 13 01 01 00  	mv	sp, sp
80200008: 97 00 00 00  	auipc	ra, 0
8020000c: e7 80 80 00  	jalr	8(ra)

0000000080200010 <rust_main>:
; rust_main():
80200010: 5d 71        	addi	sp, sp, -80
80200012: 86 e4        	sd	ra, 72(sp)
80200014: a2 e0        	sd	s0, 64(sp)
80200016: 26 fc        	sd	s1, 56(sp)
80200018: 4a f8        	sd	s2, 48(sp)
8020001a: 80 08        	addi	s0, sp, 80

000000008020001c <.LBB0_3>:
; .LBB0_3():
8020001c: 17 f5 01 00  	auipc	a0, 31
80200020: 13 05 45 fe  	addi	a0, a0, -28

0000000080200024 <.LBB0_4>:
; .LBB0_4():
80200024: 97 e5 01 00  	auipc	a1, 30
80200028: 93 85 c5 fd  	addi	a1, a1, -36
8020002c: 63 f9 a5 00  	bgeu	a1, a0, 0x8020003e <.LBB0_5>
80200030: 13 86 15 00  	addi	a2, a1, 1
80200034: 23 80 05 00  	sb	zero, 0(a1)
80200038: b2 85        	mv	a1, a2
8020003a: e3 6b a6 fe  	bltu	a2, a0, 0x80200030 <.LBB0_4+0xc>

000000008020003e <.LBB0_5>:
; .LBB0_5():
8020003e: 17 55 00 00  	auipc	a0, 5
80200042: 13 05 25 fd  	addi	a0, a0, -46
80200046: 23 38 a4 fa  	sd	a0, -80(s0)
8020004a: 05 49        	li	s2, 1
8020004c: 23 3c 24 fb  	sd	s2, -72(s0)
80200050: 23 30 04 fc  	sd	zero, -64(s0)

0000000080200054 <.LBB0_6>:
; .LBB0_6():
80200054: 97 54 00 00  	auipc	s1, 5
80200058: 93 84 c4 fa  	addi	s1, s1, -84
8020005c: 23 38 94 fc  	sd	s1, -48(s0)
80200060: 23 3c 04 fc  	sd	zero, -40(s0)
80200064: 13 05 04 fb  	addi	a0, s0, -80
80200068: 97 20 00 00  	auipc	ra, 2
8020006c: e7 80 40 9f  	jalr	-1548(ra)

0000000080200070 <.LBB0_7>:
; .LBB0_7():
80200070: 17 55 00 00  	auipc	a0, 5
80200074: 13 05 85 fd  	addi	a0, a0, -40
80200078: 23 38 a4 fa  	sd	a0, -80(s0)
8020007c: 23 3c 24 fb  	sd	s2, -72(s0)
80200080: 23 30 04 fc  	sd	zero, -64(s0)
80200084: 23 38 94 fc  	sd	s1, -48(s0)
80200088: 23 3c 04 fc  	sd	zero, -40(s0)
8020008c: 13 05 04 fb  	addi	a0, s0, -80
80200090: 97 20 00 00  	auipc	ra, 2
80200094: e7 80 c0 9c  	jalr	-1588(ra)

0000000080200098 <.LBB0_8>:
; .LBB0_8():
80200098: 17 55 00 00  	auipc	a0, 5
8020009c: 13 05 85 fe  	addi	a0, a0, -24
802000a0: 23 38 a4 fa  	sd	a0, -80(s0)
802000a4: 23 3c 24 fb  	sd	s2, -72(s0)
802000a8: 23 30 04 fc  	sd	zero, -64(s0)
802000ac: 23 38 94 fc  	sd	s1, -48(s0)
802000b0: 23 3c 04 fc  	sd	zero, -40(s0)
802000b4: 13 05 04 fb  	addi	a0, s0, -80
802000b8: 97 20 00 00  	auipc	ra, 2
802000bc: e7 80 40 9a  	jalr	-1628(ra)

00000000802000c0 <.LBB0_9>:
; .LBB0_9():
802000c0: 17 55 00 00  	auipc	a0, 5
802000c4: 13 05 05 00  	mv	a0, a0
802000c8: 23 38 a4 fa  	sd	a0, -80(s0)
802000cc: 23 3c 24 fb  	sd	s2, -72(s0)
802000d0: 23 30 04 fc  	sd	zero, -64(s0)
802000d4: 23 38 94 fc  	sd	s1, -48(s0)
802000d8: 23 3c 04 fc  	sd	zero, -40(s0)
802000dc: 13 05 04 fb  	addi	a0, s0, -80
802000e0: 97 20 00 00  	auipc	ra, 2
802000e4: e7 80 c0 97  	jalr	-1668(ra)

00000000802000e8 <.LBB0_10>:
; .LBB0_10():
802000e8: 17 55 00 00  	auipc	a0, 5
802000ec: 13 05 85 01  	addi	a0, a0, 24
802000f0: 23 38 a4 fa  	sd	a0, -80(s0)
802000f4: 23 3c 24 fb  	sd	s2, -72(s0)
802000f8: 23 30 04 fc  	sd	zero, -64(s0)
802000fc: 23 38 94 fc  	sd	s1, -48(s0)
80200100: 23 3c 04 fc  	sd	zero, -40(s0)
80200104: 13 05 04 fb  	addi	a0, s0, -80
80200108: 97 20 00 00  	auipc	ra, 2
8020010c: e7 80 40 95  	jalr	-1708(ra)

0000000080200110 <.LBB0_11>:
; .LBB0_11():
80200110: 17 55 00 00  	auipc	a0, 5
80200114: 13 05 05 03  	addi	a0, a0, 48
80200118: 23 38 a4 fa  	sd	a0, -80(s0)
8020011c: 23 3c 24 fb  	sd	s2, -72(s0)
80200120: 23 30 04 fc  	sd	zero, -64(s0)
80200124: 23 38 94 fc  	sd	s1, -48(s0)
80200128: 23 3c 04 fc  	sd	zero, -40(s0)
8020012c: 13 05 04 fb  	addi	a0, s0, -80
80200130: 97 20 00 00  	auipc	ra, 2
80200134: e7 80 c0 92  	jalr	-1748(ra)
80200138: 97 00 00 00  	auipc	ra, 0
8020013c: e7 80 20 02  	jalr	34(ra)
80200140: 97 10 00 00  	auipc	ra, 1
80200144: e7 80 e0 04  	jalr	78(ra)
80200148: 97 00 00 00  	auipc	ra, 0
8020014c: e7 80 00 59  	jalr	1424(ra)
80200150: 97 10 00 00  	auipc	ra, 1
80200154: e7 80 20 9f  	jalr	-1550(ra)
80200158: 00 00        	unimp	

000000008020015a <_ZN2os12sys_mem_info17hc90128e2766d3956E>:
; _ZN2os12sys_mem_info17hc90128e2766d3956E():
8020015a: 75 71        	addi	sp, sp, -144
8020015c: 06 e5        	sd	ra, 136(sp)
8020015e: 22 e1        	sd	s0, 128(sp)
80200160: a6 fc        	sd	s1, 120(sp)
80200162: ca f8        	sd	s2, 112(sp)
80200164: ce f4        	sd	s3, 104(sp)
80200166: d2 f0        	sd	s4, 96(sp)
80200168: d6 ec        	sd	s5, 88(sp)
8020016a: da e8        	sd	s6, 80(sp)
8020016c: 00 09        	addi	s0, sp, 144

000000008020016e <.LBB1_13>:
; .LBB1_13():
8020016e: 17 05 00 00  	auipc	a0, 0
80200172: 13 05 25 e9  	addi	a0, a0, -366
80200176: 23 30 a4 f8  	sd	a0, -128(s0)
8020017a: 13 09 04 f8  	addi	s2, s0, -128
8020017e: 23 38 24 f7  	sd	s2, -144(s0)

0000000080200182 <.LBB1_14>:
; .LBB1_14():
80200182: 97 44 00 00  	auipc	s1, 4
80200186: 93 84 44 fe  	addi	s1, s1, -28
8020018a: 23 3c 94 f6  	sd	s1, -136(s0)
8020018e: 13 05 04 f9  	addi	a0, s0, -112
80200192: 23 34 a4 f8  	sd	a0, -120(s0)

0000000080200196 <.LBB1_15>:
; .LBB1_15():
80200196: 17 55 00 00  	auipc	a0, 5
8020019a: 13 05 a5 fd  	addi	a0, a0, -38
8020019e: 23 38 a4 f8  	sd	a0, -112(s0)
802001a2: 89 49        	li	s3, 2
802001a4: 23 3c 34 f9  	sd	s3, -104(s0)
802001a8: 23 30 04 fa  	sd	zero, -96(s0)
802001ac: 13 0a 04 f7  	addi	s4, s0, -144
802001b0: 23 38 44 fb  	sd	s4, -80(s0)
802001b4: 85 4a        	li	s5, 1
802001b6: 23 3c 54 fb  	sd	s5, -72(s0)

00000000802001ba <.LBB1_16>:
; .LBB1_16():
802001ba: 97 a5 00 00  	auipc	a1, 10
802001be: 93 85 e5 61  	addi	a1, a1, 1566
802001c2: 13 05 84 f8  	addi	a0, s0, -120
802001c6: 13 06 04 f9  	addi	a2, s0, -112
802001ca: 13 0b 04 f9  	addi	s6, s0, -112
802001ce: 97 30 00 00  	auipc	ra, 3
802001d2: e7 80 20 d4  	jalr	-702(ra)
802001d6: 63 19 05 38  	bnez	a0, 0x80200568 <.LBB1_47>

00000000802001da <.LBB1_17>:
; .LBB1_17():
802001da: 17 05 00 00  	auipc	a0, 0
802001de: 13 05 65 e2  	addi	a0, a0, -474
802001e2: 23 30 a4 f8  	sd	a0, -128(s0)
802001e6: 23 38 24 f7  	sd	s2, -144(s0)
802001ea: 23 3c 94 f6  	sd	s1, -136(s0)
802001ee: 23 34 64 f9  	sd	s6, -120(s0)

00000000802001f2 <.LBB1_18>:
; .LBB1_18():
802001f2: 17 55 00 00  	auipc	a0, 5
802001f6: 13 05 e5 fb  	addi	a0, a0, -66
802001fa: 23 38 a4 f8  	sd	a0, -112(s0)
802001fe: 23 3c 34 f9  	sd	s3, -104(s0)
80200202: 23 30 04 fa  	sd	zero, -96(s0)
80200206: 23 38 44 fb  	sd	s4, -80(s0)
8020020a: 23 3c 54 fb  	sd	s5, -72(s0)

000000008020020e <.LBB1_19>:
; .LBB1_19():
8020020e: 97 a5 00 00  	auipc	a1, 10
80200212: 93 85 a5 5c  	addi	a1, a1, 1482
80200216: 13 05 84 f8  	addi	a0, s0, -120
8020021a: 13 06 04 f9  	addi	a2, s0, -112
8020021e: 93 09 04 f9  	addi	s3, s0, -112
80200222: 97 30 00 00  	auipc	ra, 3
80200226: e7 80 e0 ce  	jalr	-786(ra)
8020022a: 63 1f 05 32  	bnez	a0, 0x80200568 <.LBB1_47>

000000008020022e <.LBB1_20>:
; .LBB1_20():
8020022e: 17 05 00 00  	auipc	a0, 0
80200232: 13 05 25 dd  	addi	a0, a0, -558
80200236: 23 30 a4 f8  	sd	a0, -128(s0)
8020023a: 13 09 04 f8  	addi	s2, s0, -128
8020023e: 23 38 24 f7  	sd	s2, -144(s0)
80200242: 23 3c 94 f6  	sd	s1, -136(s0)
80200246: 23 34 34 f9  	sd	s3, -120(s0)

000000008020024a <.LBB1_21>:
; .LBB1_21():
8020024a: 17 55 00 00  	auipc	a0, 5
8020024e: 13 05 65 fa  	addi	a0, a0, -90
80200252: 23 38 a4 f8  	sd	a0, -112(s0)
80200256: 89 49        	li	s3, 2
80200258: 23 3c 34 f9  	sd	s3, -104(s0)
8020025c: 23 30 04 fa  	sd	zero, -96(s0)
80200260: 13 0a 04 f7  	addi	s4, s0, -144
80200264: 23 38 44 fb  	sd	s4, -80(s0)
80200268: 85 4a        	li	s5, 1
8020026a: 23 3c 54 fb  	sd	s5, -72(s0)

000000008020026e <.LBB1_22>:
; .LBB1_22():
8020026e: 97 a5 00 00  	auipc	a1, 10
80200272: 93 85 a5 56  	addi	a1, a1, 1386
80200276: 13 05 84 f8  	addi	a0, s0, -120
8020027a: 13 06 04 f9  	addi	a2, s0, -112
8020027e: 13 0b 04 f9  	addi	s6, s0, -112
80200282: 97 30 00 00  	auipc	ra, 3
80200286: e7 80 e0 c8  	jalr	-882(ra)
8020028a: 63 1f 05 2c  	bnez	a0, 0x80200568 <.LBB1_47>

000000008020028e <.LBB1_23>:
; .LBB1_23():
8020028e: 17 55 00 00  	auipc	a0, 5
80200292: 13 05 25 d7  	addi	a0, a0, -654
80200296: 23 30 a4 f8  	sd	a0, -128(s0)
8020029a: 23 38 24 f7  	sd	s2, -144(s0)
8020029e: 23 3c 94 f6  	sd	s1, -136(s0)
802002a2: 23 34 64 f9  	sd	s6, -120(s0)

00000000802002a6 <.LBB1_24>:
; .LBB1_24():
802002a6: 17 55 00 00  	auipc	a0, 5
802002aa: 13 05 a5 f8  	addi	a0, a0, -118
802002ae: 23 38 a4 f8  	sd	a0, -112(s0)
802002b2: 23 3c 34 f9  	sd	s3, -104(s0)
802002b6: 23 30 04 fa  	sd	zero, -96(s0)
802002ba: 23 38 44 fb  	sd	s4, -80(s0)
802002be: 23 3c 54 fb  	sd	s5, -72(s0)

00000000802002c2 <.LBB1_25>:
; .LBB1_25():
802002c2: 97 a5 00 00  	auipc	a1, 10
802002c6: 93 85 65 51  	addi	a1, a1, 1302
802002ca: 13 05 84 f8  	addi	a0, s0, -120
802002ce: 13 06 04 f9  	addi	a2, s0, -112
802002d2: 93 09 04 f9  	addi	s3, s0, -112
802002d6: 97 30 00 00  	auipc	ra, 3
802002da: e7 80 a0 c3  	jalr	-966(ra)
802002de: 63 15 05 28  	bnez	a0, 0x80200568 <.LBB1_47>

00000000802002e2 <.LBB1_26>:
; .LBB1_26():
802002e2: 17 55 00 00  	auipc	a0, 5
802002e6: 13 05 e5 d1  	addi	a0, a0, -738
802002ea: 23 30 a4 f8  	sd	a0, -128(s0)
802002ee: 13 09 04 f8  	addi	s2, s0, -128
802002f2: 23 38 24 f7  	sd	s2, -144(s0)
802002f6: 23 3c 94 f6  	sd	s1, -136(s0)
802002fa: 23 34 34 f9  	sd	s3, -120(s0)

00000000802002fe <.LBB1_27>:
; .LBB1_27():
802002fe: 17 55 00 00  	auipc	a0, 5
80200302: 13 05 25 f7  	addi	a0, a0, -142
80200306: 23 38 a4 f8  	sd	a0, -112(s0)
8020030a: 89 49        	li	s3, 2
8020030c: 23 3c 34 f9  	sd	s3, -104(s0)
80200310: 23 30 04 fa  	sd	zero, -96(s0)
80200314: 13 0a 04 f7  	addi	s4, s0, -144
80200318: 23 38 44 fb  	sd	s4, -80(s0)
8020031c: 85 4a        	li	s5, 1
8020031e: 23 3c 54 fb  	sd	s5, -72(s0)

0000000080200322 <.LBB1_28>:
; .LBB1_28():
80200322: 97 a5 00 00  	auipc	a1, 10
80200326: 93 85 65 4b  	addi	a1, a1, 1206
8020032a: 13 05 84 f8  	addi	a0, s0, -120
8020032e: 13 06 04 f9  	addi	a2, s0, -112
80200332: 13 0b 04 f9  	addi	s6, s0, -112
80200336: 97 30 00 00  	auipc	ra, 3
8020033a: e7 80 a0 bd  	jalr	-1062(ra)
8020033e: 63 15 05 22  	bnez	a0, 0x80200568 <.LBB1_47>

0000000080200342 <.LBB1_29>:
; .LBB1_29():
80200342: 17 c5 00 00  	auipc	a0, 12
80200346: 13 05 e5 cb  	addi	a0, a0, -834
8020034a: 23 30 a4 f8  	sd	a0, -128(s0)
8020034e: 23 38 24 f7  	sd	s2, -144(s0)
80200352: 23 3c 94 f6  	sd	s1, -136(s0)
80200356: 23 34 64 f9  	sd	s6, -120(s0)

000000008020035a <.LBB1_30>:
; .LBB1_30():
8020035a: 17 55 00 00  	auipc	a0, 5
8020035e: 13 05 65 f5  	addi	a0, a0, -170
80200362: 23 38 a4 f8  	sd	a0, -112(s0)
80200366: 23 3c 34 f9  	sd	s3, -104(s0)
8020036a: 23 30 04 fa  	sd	zero, -96(s0)
8020036e: 23 38 44 fb  	sd	s4, -80(s0)
80200372: 23 3c 54 fb  	sd	s5, -72(s0)

0000000080200376 <.LBB1_31>:
; .LBB1_31():
80200376: 97 a5 00 00  	auipc	a1, 10
8020037a: 93 85 25 46  	addi	a1, a1, 1122
8020037e: 13 05 84 f8  	addi	a0, s0, -120
80200382: 13 06 04 f9  	addi	a2, s0, -112
80200386: 93 09 04 f9  	addi	s3, s0, -112
8020038a: 97 30 00 00  	auipc	ra, 3
8020038e: e7 80 60 b8  	jalr	-1146(ra)
80200392: 63 1b 05 1c  	bnez	a0, 0x80200568 <.LBB1_47>

0000000080200396 <.LBB1_32>:
; .LBB1_32():
80200396: 17 c5 00 00  	auipc	a0, 12
8020039a: 13 05 a5 c6  	addi	a0, a0, -918
8020039e: 23 30 a4 f8  	sd	a0, -128(s0)
802003a2: 13 09 04 f8  	addi	s2, s0, -128
802003a6: 23 38 24 f7  	sd	s2, -144(s0)
802003aa: 23 3c 94 f6  	sd	s1, -136(s0)
802003ae: 23 34 34 f9  	sd	s3, -120(s0)

00000000802003b2 <.LBB1_33>:
; .LBB1_33():
802003b2: 17 55 00 00  	auipc	a0, 5
802003b6: 13 05 e5 f3  	addi	a0, a0, -194
802003ba: 23 38 a4 f8  	sd	a0, -112(s0)
802003be: 89 49        	li	s3, 2
802003c0: 23 3c 34 f9  	sd	s3, -104(s0)
802003c4: 23 30 04 fa  	sd	zero, -96(s0)
802003c8: 13 0a 04 f7  	addi	s4, s0, -144
802003cc: 23 38 44 fb  	sd	s4, -80(s0)
802003d0: 85 4a        	li	s5, 1
802003d2: 23 3c 54 fb  	sd	s5, -72(s0)

00000000802003d6 <.LBB1_34>:
; .LBB1_34():
802003d6: 97 a5 00 00  	auipc	a1, 10
802003da: 93 85 25 40  	addi	a1, a1, 1026
802003de: 13 05 84 f8  	addi	a0, s0, -120
802003e2: 13 06 04 f9  	addi	a2, s0, -112
802003e6: 13 0b 04 f9  	addi	s6, s0, -112
802003ea: 97 30 00 00  	auipc	ra, 3
802003ee: e7 80 60 b2  	jalr	-1242(ra)
802003f2: 63 1b 05 16  	bnez	a0, 0x80200568 <.LBB1_47>

00000000802003f6 <.LBB1_35>:
; .LBB1_35():
802003f6: 17 e5 00 00  	auipc	a0, 14
802003fa: 13 05 a5 c0  	addi	a0, a0, -1014
802003fe: 23 30 a4 f8  	sd	a0, -128(s0)
80200402: 23 38 24 f7  	sd	s2, -144(s0)
80200406: 23 3c 94 f6  	sd	s1, -136(s0)
8020040a: 23 34 64 f9  	sd	s6, -120(s0)

000000008020040e <.LBB1_36>:
; .LBB1_36():
8020040e: 17 55 00 00  	auipc	a0, 5
80200412: 13 05 25 f2  	addi	a0, a0, -222
80200416: 23 38 a4 f8  	sd	a0, -112(s0)
8020041a: 23 3c 34 f9  	sd	s3, -104(s0)
8020041e: 23 30 04 fa  	sd	zero, -96(s0)
80200422: 23 38 44 fb  	sd	s4, -80(s0)
80200426: 23 3c 54 fb  	sd	s5, -72(s0)

000000008020042a <.LBB1_37>:
; .LBB1_37():
8020042a: 97 a5 00 00  	auipc	a1, 10
8020042e: 93 85 e5 3a  	addi	a1, a1, 942
80200432: 13 05 84 f8  	addi	a0, s0, -120
80200436: 13 06 04 f9  	addi	a2, s0, -112
8020043a: 93 09 04 f9  	addi	s3, s0, -112
8020043e: 97 30 00 00  	auipc	ra, 3
80200442: e7 80 20 ad  	jalr	-1326(ra)
80200446: 63 11 05 12  	bnez	a0, 0x80200568 <.LBB1_47>

000000008020044a <.LBB1_38>:
; .LBB1_38():
8020044a: 17 e5 01 00  	auipc	a0, 30
8020044e: 13 05 65 bb  	addi	a0, a0, -1098
80200452: 23 30 a4 f8  	sd	a0, -128(s0)
80200456: 13 09 04 f8  	addi	s2, s0, -128
8020045a: 23 38 24 f7  	sd	s2, -144(s0)
8020045e: 23 3c 94 f6  	sd	s1, -136(s0)
80200462: 23 34 34 f9  	sd	s3, -120(s0)

0000000080200466 <.LBB1_39>:
; .LBB1_39():
80200466: 17 55 00 00  	auipc	a0, 5
8020046a: 13 05 a5 f0  	addi	a0, a0, -246
8020046e: 23 38 a4 f8  	sd	a0, -112(s0)
80200472: 89 49        	li	s3, 2
80200474: 23 3c 34 f9  	sd	s3, -104(s0)
80200478: 23 30 04 fa  	sd	zero, -96(s0)
8020047c: 13 0a 04 f7  	addi	s4, s0, -144
80200480: 23 38 44 fb  	sd	s4, -80(s0)
80200484: 85 4a        	li	s5, 1
80200486: 23 3c 54 fb  	sd	s5, -72(s0)

000000008020048a <.LBB1_40>:
; .LBB1_40():
8020048a: 97 a5 00 00  	auipc	a1, 10
8020048e: 93 85 e5 34  	addi	a1, a1, 846
80200492: 13 05 84 f8  	addi	a0, s0, -120
80200496: 13 06 04 f9  	addi	a2, s0, -112
8020049a: 13 0b 04 f9  	addi	s6, s0, -112
8020049e: 97 30 00 00  	auipc	ra, 3
802004a2: e7 80 20 a7  	jalr	-1422(ra)
802004a6: 69 e1        	bnez	a0, 0x80200568 <.LBB1_47>

00000000802004a8 <.LBB1_41>:
; .LBB1_41():
802004a8: 17 f5 01 00  	auipc	a0, 31
802004ac: 13 05 85 b5  	addi	a0, a0, -1192
802004b0: 23 30 a4 f8  	sd	a0, -128(s0)
802004b4: 23 38 24 f7  	sd	s2, -144(s0)
802004b8: 23 3c 94 f6  	sd	s1, -136(s0)
802004bc: 23 34 64 f9  	sd	s6, -120(s0)

00000000802004c0 <.LBB1_42>:
; .LBB1_42():
802004c0: 17 55 00 00  	auipc	a0, 5
802004c4: 13 05 05 ef  	addi	a0, a0, -272
802004c8: 23 38 a4 f8  	sd	a0, -112(s0)
802004cc: 23 3c 34 f9  	sd	s3, -104(s0)
802004d0: 23 30 04 fa  	sd	zero, -96(s0)
802004d4: 23 38 44 fb  	sd	s4, -80(s0)
802004d8: 23 3c 54 fb  	sd	s5, -72(s0)

00000000802004dc <.LBB1_43>:
; .LBB1_43():
802004dc: 97 a5 00 00  	auipc	a1, 10
802004e0: 93 85 c5 2f  	addi	a1, a1, 764
802004e4: 13 05 84 f8  	addi	a0, s0, -120
802004e8: 13 06 04 f9  	addi	a2, s0, -112
802004ec: 13 09 04 f9  	addi	s2, s0, -112
802004f0: 97 30 00 00  	auipc	ra, 3
802004f4: e7 80 00 a2  	jalr	-1504(ra)
802004f8: 25 e9        	bnez	a0, 0x80200568 <.LBB1_47>

00000000802004fa <.LBB1_44>:
; .LBB1_44():
802004fa: 17 f5 01 00  	auipc	a0, 31
802004fe: 13 05 65 b0  	addi	a0, a0, -1274
80200502: 23 30 a4 f8  	sd	a0, -128(s0)
80200506: 13 05 04 f8  	addi	a0, s0, -128
8020050a: 23 38 a4 f6  	sd	a0, -144(s0)
8020050e: 23 3c 94 f6  	sd	s1, -136(s0)
80200512: 23 34 24 f9  	sd	s2, -120(s0)

0000000080200516 <.LBB1_45>:
; .LBB1_45():
80200516: 17 55 00 00  	auipc	a0, 5
8020051a: 13 05 a5 ed  	addi	a0, a0, -294
8020051e: 23 38 a4 f8  	sd	a0, -112(s0)
80200522: 09 45        	li	a0, 2
80200524: 23 3c a4 f8  	sd	a0, -104(s0)
80200528: 23 30 04 fa  	sd	zero, -96(s0)
8020052c: 13 05 04 f7  	addi	a0, s0, -144
80200530: 23 38 a4 fa  	sd	a0, -80(s0)
80200534: 05 45        	li	a0, 1
80200536: 23 3c a4 fa  	sd	a0, -72(s0)

000000008020053a <.LBB1_46>:
; .LBB1_46():
8020053a: 97 a5 00 00  	auipc	a1, 10
8020053e: 93 85 e5 29  	addi	a1, a1, 670
80200542: 13 05 84 f8  	addi	a0, s0, -120
80200546: 13 06 04 f9  	addi	a2, s0, -112
8020054a: 97 30 00 00  	auipc	ra, 3
8020054e: e7 80 60 9c  	jalr	-1594(ra)
80200552: 19 e9        	bnez	a0, 0x80200568 <.LBB1_47>
80200554: aa 60        	ld	ra, 136(sp)
80200556: 0a 64        	ld	s0, 128(sp)
80200558: e6 74        	ld	s1, 120(sp)
8020055a: 46 79        	ld	s2, 112(sp)
8020055c: a6 79        	ld	s3, 104(sp)
8020055e: 06 7a        	ld	s4, 96(sp)
80200560: e6 6a        	ld	s5, 88(sp)
80200562: 46 6b        	ld	s6, 80(sp)
80200564: 49 61        	addi	sp, sp, 144
80200566: 82 80        	ret

0000000080200568 <.LBB1_47>:
; .LBB1_47():
80200568: 17 a5 00 00  	auipc	a0, 10
8020056c: 13 05 05 2a  	addi	a0, a0, 672

0000000080200570 <.LBB1_48>:
; .LBB1_48():
80200570: 97 a6 00 00  	auipc	a3, 10
80200574: 93 86 86 2c  	addi	a3, a3, 712

0000000080200578 <.LBB1_49>:
; .LBB1_49():
80200578: 17 a7 00 00  	auipc	a4, 10
8020057c: 13 07 07 2f  	addi	a4, a4, 752
80200580: 93 05 b0 02  	li	a1, 43
80200584: 13 06 04 f9  	addi	a2, s0, -112
80200588: 97 20 00 00  	auipc	ra, 2
8020058c: e7 80 c0 06  	jalr	108(ra)
80200590: 00 00        	unimp	

0000000080200592 <_ZN2os5batch10AppManager8load_app17hfd85a450863ba7fbE.llvm.15454435013090158246>:
; _ZN2os5batch10AppManager8load_app17hfd85a450863ba7fbE.llvm.15454435013090158246():
80200592: 59 71        	addi	sp, sp, -112
80200594: 86 f4        	sd	ra, 104(sp)
80200596: a2 f0        	sd	s0, 96(sp)
80200598: a6 ec        	sd	s1, 88(sp)
8020059a: 80 18        	addi	s0, sp, 112
8020059c: aa 84        	mv	s1, a0
8020059e: 19 45        	li	a0, 6
802005a0: 23 3c b4 f8  	sd	a1, -104(s0)
802005a4: 63 67 b5 0c  	bltu	a0, a1, 0x80200672 <.LBB1_15>
802005a8: 13 05 84 f9  	addi	a0, s0, -104
802005ac: 23 30 a4 fa  	sd	a0, -96(s0)

00000000802005b0 <.LBB1_10>:
; .LBB1_10():
802005b0: 17 45 00 00  	auipc	a0, 4
802005b4: 13 05 45 f8  	addi	a0, a0, -124
802005b8: 23 34 a4 fa  	sd	a0, -88(s0)
802005bc: 13 05 84 fb  	addi	a0, s0, -72
802005c0: 23 38 a4 fa  	sd	a0, -80(s0)

00000000802005c4 <.LBB1_11>:
; .LBB1_11():
802005c4: 17 a5 00 00  	auipc	a0, 10
802005c8: 13 05 45 c0  	addi	a0, a0, -1020
802005cc: 23 3c a4 fa  	sd	a0, -72(s0)
802005d0: 09 45        	li	a0, 2
802005d2: 23 30 a4 fc  	sd	a0, -64(s0)
802005d6: 23 34 04 fc  	sd	zero, -56(s0)
802005da: 13 05 04 fa  	addi	a0, s0, -96
802005de: 23 3c a4 fc  	sd	a0, -40(s0)
802005e2: 05 45        	li	a0, 1
802005e4: 23 30 a4 fe  	sd	a0, -32(s0)

00000000802005e8 <.LBB1_12>:
; .LBB1_12():
802005e8: 97 a5 00 00  	auipc	a1, 10
802005ec: 93 85 05 1f  	addi	a1, a1, 496
802005f0: 13 05 04 fb  	addi	a0, s0, -80
802005f4: 13 06 84 fb  	addi	a2, s0, -72
802005f8: 97 30 00 00  	auipc	ra, 3
802005fc: e7 80 80 91  	jalr	-1768(ra)
80200600: 5d e5        	bnez	a0, 0x802006ae <.LBB1_18>
80200602: 0f 10 00 00  	fence.i	
80200606: 13 05 10 20  	li	a0, 513
8020060a: 5a 05        	slli	a0, a0, 22
8020060c: 37 06 02 00  	lui	a2, 32
80200610: 81 45        	li	a1, 0
80200612: 97 40 00 00  	auipc	ra, 4
80200616: e7 80 00 34  	jalr	832(ra)
8020061a: 03 35 84 f9  	ld	a0, -104(s0)
8020061e: 9d 45        	li	a1, 7
80200620: 63 79 b5 02  	bgeu	a0, a1, 0x80200652 <.LBB1_13>
80200624: 99 45        	li	a1, 6
80200626: 63 0b b5 02  	beq	a0, a1, 0x8020065c <.LBB1_14>
8020062a: 0e 05        	slli	a0, a0, 3
8020062c: b3 85 a4 00  	add	a1, s1, a0
80200630: 8c 69        	ld	a1, 16(a1)
80200632: 26 95        	add	a0, a0, s1
80200634: 08 6d        	ld	a0, 24(a0)
80200636: 33 06 b5 40  	sub	a2, a0, a1
8020063a: 13 05 10 20  	li	a0, 513
8020063e: 5a 05        	slli	a0, a0, 22
80200640: 97 40 00 00  	auipc	ra, 4
80200644: e7 80 80 1f  	jalr	504(ra)
80200648: a6 70        	ld	ra, 104(sp)
8020064a: 06 74        	ld	s0, 96(sp)
8020064c: e6 64        	ld	s1, 88(sp)
8020064e: 65 61        	addi	sp, sp, 112
80200650: 82 80        	ret

0000000080200652 <.LBB1_13>:
; .LBB1_13():
80200652: 17 a6 00 00  	auipc	a2, 10
80200656: 13 06 66 b9  	addi	a2, a2, -1130
8020065a: 31 a0        	j	0x80200666 <.LBB1_14+0xa>

000000008020065c <.LBB1_14>:
; .LBB1_14():
8020065c: 17 a6 00 00  	auipc	a2, 10
80200660: 13 06 46 ba  	addi	a2, a2, -1116
80200664: 1d 45        	li	a0, 7
80200666: 9d 45        	li	a1, 7
80200668: 97 20 00 00  	auipc	ra, 2
8020066c: e7 80 e0 f1  	jalr	-226(ra)
80200670: 00 00        	unimp	

0000000080200672 <.LBB1_15>:
; .LBB1_15():
80200672: 17 a5 00 00  	auipc	a0, 10
80200676: 13 05 e5 b0  	addi	a0, a0, -1266
8020067a: 23 3c a4 fa  	sd	a0, -72(s0)
8020067e: 05 45        	li	a0, 1
80200680: 23 30 a4 fc  	sd	a0, -64(s0)
80200684: 23 34 04 fc  	sd	zero, -56(s0)

0000000080200688 <.LBB1_16>:
; .LBB1_16():
80200688: 17 55 00 00  	auipc	a0, 5
8020068c: 13 05 85 d8  	addi	a0, a0, -632
80200690: 23 3c a4 fc  	sd	a0, -40(s0)
80200694: 23 30 04 fe  	sd	zero, -32(s0)

0000000080200698 <.LBB1_17>:
; .LBB1_17():
80200698: 97 a5 00 00  	auipc	a1, 10
8020069c: 93 85 85 af  	addi	a1, a1, -1288
802006a0: 13 05 84 fb  	addi	a0, s0, -72
802006a4: 97 20 00 00  	auipc	ra, 2
802006a8: e7 80 20 f2  	jalr	-222(ra)
802006ac: 00 00        	unimp	

00000000802006ae <.LBB1_18>:
; .LBB1_18():
802006ae: 17 a5 00 00  	auipc	a0, 10
802006b2: 13 05 a5 15  	addi	a0, a0, 346

00000000802006b6 <.LBB1_19>:
; .LBB1_19():
802006b6: 97 a6 00 00  	auipc	a3, 10
802006ba: 93 86 26 18  	addi	a3, a3, 386

00000000802006be <.LBB1_20>:
; .LBB1_20():
802006be: 17 a7 00 00  	auipc	a4, 10
802006c2: 13 07 a7 1a  	addi	a4, a4, 426
802006c6: 93 05 b0 02  	li	a1, 43
802006ca: 13 06 84 fb  	addi	a2, s0, -72
802006ce: 97 20 00 00  	auipc	ra, 2
802006d2: e7 80 60 f2  	jalr	-218(ra)
802006d6: 00 00        	unimp	

00000000802006d8 <_ZN2os5batch4init17hd93fc9873164a825E>:
; _ZN2os5batch4init17hd93fc9873164a825E():
802006d8: 6d 71        	addi	sp, sp, -272
802006da: 06 e6        	sd	ra, 264(sp)
802006dc: 22 e2        	sd	s0, 256(sp)
802006de: a6 fd        	sd	s1, 248(sp)
802006e0: ca f9        	sd	s2, 240(sp)
802006e2: ce f5        	sd	s3, 232(sp)
802006e4: d2 f1        	sd	s4, 224(sp)
802006e6: d6 ed        	sd	s5, 216(sp)
802006e8: da e9        	sd	s6, 208(sp)
802006ea: de e5        	sd	s7, 200(sp)
802006ec: e2 e1        	sd	s8, 192(sp)
802006ee: 66 fd        	sd	s9, 184(sp)
802006f0: 6a f9        	sd	s10, 176(sp)
802006f2: 00 0a        	addi	s0, sp, 272

00000000802006f4 <.LBB2_19>:
; .LBB2_19():
802006f4: 17 e5 01 00  	auipc	a0, 30
802006f8: 13 05 c5 90  	addi	a0, a0, -1780
802006fc: 97 10 00 00  	auipc	ra, 1
80200700: e7 80 a0 c0  	jalr	-1014(ra)
80200704: 2a 8c        	mv	s8, a0
80200706: 08 61        	ld	a0, 0(a0)
80200708: 63 1a 05 3e  	bnez	a0, 0x80200afc <.LBB2_35>
8020070c: 7d 55        	li	a0, -1
8020070e: 23 30 ac 00  	sd	a0, 0(s8)
80200712: 13 09 8c 00  	addi	s2, s8, 8
80200716: 23 38 24 f3  	sd	s2, -208(s0)

000000008020071a <.LBB2_20>:
; .LBB2_20():
8020071a: 17 45 00 00  	auipc	a0, 4
8020071e: 13 05 a5 e1  	addi	a0, a0, -486
80200722: 23 3c a4 f2  	sd	a0, -200(s0)
80200726: 13 05 04 f7  	addi	a0, s0, -144
8020072a: 23 30 a4 f0  	sd	a0, -256(s0)

000000008020072e <.LBB2_21>:
; .LBB2_21():
8020072e: 17 a5 00 00  	auipc	a0, 10
80200732: 13 05 25 90  	addi	a0, a0, -1790
80200736: 23 38 a4 f6  	sd	a0, -144(s0)
8020073a: 09 45        	li	a0, 2
8020073c: 23 3c a4 f6  	sd	a0, -136(s0)
80200740: 23 30 04 f8  	sd	zero, -128(s0)
80200744: 13 05 04 f3  	addi	a0, s0, -208
80200748: 23 38 a4 f8  	sd	a0, -112(s0)
8020074c: 05 45        	li	a0, 1
8020074e: 23 3c a4 f8  	sd	a0, -104(s0)

0000000080200752 <.LBB2_22>:
; .LBB2_22():
80200752: 97 a5 00 00  	auipc	a1, 10
80200756: 93 85 65 08  	addi	a1, a1, 134
8020075a: 13 05 04 f0  	addi	a0, s0, -256
8020075e: 13 06 04 f7  	addi	a2, s0, -144
80200762: 97 20 00 00  	auipc	ra, 2
80200766: e7 80 e0 7a  	jalr	1966(ra)
8020076a: 63 1a 05 36  	bnez	a0, 0x80200ade <.LBB2_32>
8020076e: 83 39 09 00  	ld	s3, 0(s2)
80200772: 63 83 09 34  	beqz	s3, 0x80200ab8 <.LBB2_31+0x7e>
80200776: 23 3c 04 ee  	sd	zero, -264(s0)
8020077a: 13 05 84 ef  	addi	a0, s0, -264
8020077e: 23 30 a4 f6  	sd	a0, -160(s0)
80200782: 13 05 09 01  	addi	a0, s2, 16
80200786: 93 04 89 01  	addi	s1, s2, 24
8020078a: 93 05 04 f6  	addi	a1, s0, -160
8020078e: 23 38 b4 f2  	sd	a1, -208(s0)

0000000080200792 <.LBB2_23>:
; .LBB2_23():
80200792: 97 1a 00 00  	auipc	s5, 1
80200796: 93 8a 8a 6a  	addi	s5, s5, 1704
8020079a: 23 3c 54 f3  	sd	s5, -200(s0)
8020079e: 23 30 a4 f4  	sd	a0, -192(s0)

00000000802007a2 <.LBB2_24>:
; .LBB2_24():
802007a2: 17 4a 00 00  	auipc	s4, 4
802007a6: 13 0a 6a 94  	addi	s4, s4, -1722
802007aa: 23 34 44 f5  	sd	s4, -184(s0)
802007ae: 23 38 94 f4  	sd	s1, -176(s0)
802007b2: 23 3c 44 f5  	sd	s4, -168(s0)

00000000802007b6 <.LBB2_25>:
; .LBB2_25():
802007b6: 17 ab 00 00  	auipc	s6, 10
802007ba: 13 0b ab 8b  	addi	s6, s6, -1862
802007be: 23 30 64 f1  	sd	s6, -256(s0)
802007c2: 11 45        	li	a0, 4
802007c4: 23 34 a4 f0  	sd	a0, -248(s0)

00000000802007c8 <.LBB2_26>:
; .LBB2_26():
802007c8: 97 ab 00 00  	auipc	s7, 10
802007cc: 93 8b 0b 90  	addi	s7, s7, -1792
802007d0: 23 38 74 f1  	sd	s7, -240(s0)
802007d4: 8d 45        	li	a1, 3
802007d6: 23 3c b4 f0  	sd	a1, -232(s0)
802007da: 13 06 04 f3  	addi	a2, s0, -208
802007de: 23 30 c4 f2  	sd	a2, -224(s0)
802007e2: 23 34 b4 f2  	sd	a1, -216(s0)
802007e6: 93 06 04 f7  	addi	a3, s0, -144
802007ea: 23 34 d4 f6  	sd	a3, -152(s0)
802007ee: 23 3c b4 f8  	sd	a1, -104(s0)
802007f2: 23 38 c4 f8  	sd	a2, -112(s0)
802007f6: 23 34 b4 f8  	sd	a1, -120(s0)
802007fa: 23 30 74 f9  	sd	s7, -128(s0)
802007fe: 23 3c a4 f6  	sd	a0, -136(s0)
80200802: 23 38 64 f7  	sd	s6, -144(s0)

0000000080200806 <.LBB2_27>:
; .LBB2_27():
80200806: 97 a5 00 00  	auipc	a1, 10
8020080a: 93 85 25 fd  	addi	a1, a1, -46
8020080e: 13 05 84 f6  	addi	a0, s0, -152
80200812: 13 06 04 f7  	addi	a2, s0, -144
80200816: 97 20 00 00  	auipc	ra, 2
8020081a: e7 80 a0 6f  	jalr	1786(ra)
8020081e: 63 10 05 2c  	bnez	a0, 0x80200ade <.LBB2_32>
80200822: 05 45        	li	a0, 1
80200824: 63 8a a9 28  	beq	s3, a0, 0x80200ab8 <.LBB2_31+0x7e>
80200828: 23 3c a4 ee  	sd	a0, -264(s0)
8020082c: 13 05 84 ef  	addi	a0, s0, -264
80200830: 23 30 a4 f6  	sd	a0, -160(s0)
80200834: 93 0c 09 02  	addi	s9, s2, 32
80200838: 13 05 04 f6  	addi	a0, s0, -160
8020083c: 23 38 a4 f2  	sd	a0, -208(s0)
80200840: 23 3c 54 f3  	sd	s5, -200(s0)
80200844: 23 30 94 f4  	sd	s1, -192(s0)
80200848: 23 34 44 f5  	sd	s4, -184(s0)
8020084c: 23 38 94 f5  	sd	s9, -176(s0)
80200850: 23 3c 44 f5  	sd	s4, -168(s0)
80200854: 23 30 64 f1  	sd	s6, -256(s0)
80200858: 11 45        	li	a0, 4
8020085a: 23 34 a4 f0  	sd	a0, -248(s0)
8020085e: 23 38 74 f1  	sd	s7, -240(s0)
80200862: 8d 45        	li	a1, 3
80200864: 23 3c b4 f0  	sd	a1, -232(s0)
80200868: 13 06 04 f3  	addi	a2, s0, -208
8020086c: 23 30 c4 f2  	sd	a2, -224(s0)
80200870: 23 34 b4 f2  	sd	a1, -216(s0)
80200874: 93 06 04 f7  	addi	a3, s0, -144
80200878: 23 34 d4 f6  	sd	a3, -152(s0)
8020087c: 23 3c b4 f8  	sd	a1, -104(s0)
80200880: 23 38 c4 f8  	sd	a2, -112(s0)
80200884: 23 34 b4 f8  	sd	a1, -120(s0)
80200888: 23 30 74 f9  	sd	s7, -128(s0)
8020088c: 23 3c a4 f6  	sd	a0, -136(s0)
80200890: 23 38 64 f7  	sd	s6, -144(s0)

0000000080200894 <.LBB2_28>:
; .LBB2_28():
80200894: 97 a5 00 00  	auipc	a1, 10
80200898: 93 85 45 f4  	addi	a1, a1, -188
8020089c: 13 05 84 f6  	addi	a0, s0, -152
802008a0: 13 06 04 f7  	addi	a2, s0, -144
802008a4: 97 20 00 00  	auipc	ra, 2
802008a8: e7 80 c0 66  	jalr	1644(ra)
802008ac: 63 19 05 22  	bnez	a0, 0x80200ade <.LBB2_32>
802008b0: 09 45        	li	a0, 2
802008b2: 63 83 a9 20  	beq	s3, a0, 0x80200ab8 <.LBB2_31+0x7e>
802008b6: 23 3c a4 ee  	sd	a0, -264(s0)
802008ba: 13 05 84 ef  	addi	a0, s0, -264
802008be: 23 30 a4 f6  	sd	a0, -160(s0)
802008c2: 13 0d 89 02  	addi	s10, s2, 40
802008c6: 13 05 04 f6  	addi	a0, s0, -160
802008ca: 23 38 a4 f2  	sd	a0, -208(s0)
802008ce: 23 3c 54 f3  	sd	s5, -200(s0)
802008d2: 23 30 94 f5  	sd	s9, -192(s0)
802008d6: 23 34 44 f5  	sd	s4, -184(s0)
802008da: 23 38 a4 f5  	sd	s10, -176(s0)
802008de: 23 3c 44 f5  	sd	s4, -168(s0)
802008e2: 23 30 64 f1  	sd	s6, -256(s0)
802008e6: 11 45        	li	a0, 4
802008e8: 23 34 a4 f0  	sd	a0, -248(s0)
802008ec: 23 38 74 f1  	sd	s7, -240(s0)
802008f0: 8d 44        	li	s1, 3
802008f2: 23 3c 94 f0  	sd	s1, -232(s0)
802008f6: 93 05 04 f3  	addi	a1, s0, -208
802008fa: 23 30 b4 f2  	sd	a1, -224(s0)
802008fe: 23 34 94 f2  	sd	s1, -216(s0)
80200902: 13 06 04 f7  	addi	a2, s0, -144
80200906: 23 34 c4 f6  	sd	a2, -152(s0)
8020090a: 23 3c 94 f8  	sd	s1, -104(s0)
8020090e: 23 38 b4 f8  	sd	a1, -112(s0)
80200912: 23 34 94 f8  	sd	s1, -120(s0)
80200916: 23 30 74 f9  	sd	s7, -128(s0)
8020091a: 23 3c a4 f6  	sd	a0, -136(s0)
8020091e: 23 38 64 f7  	sd	s6, -144(s0)

0000000080200922 <.LBB2_29>:
; .LBB2_29():
80200922: 97 a5 00 00  	auipc	a1, 10
80200926: 93 85 65 eb  	addi	a1, a1, -330
8020092a: 13 05 84 f6  	addi	a0, s0, -152
8020092e: 13 06 04 f7  	addi	a2, s0, -144
80200932: 97 20 00 00  	auipc	ra, 2
80200936: e7 80 e0 5d  	jalr	1502(ra)
8020093a: 63 12 05 1a  	bnez	a0, 0x80200ade <.LBB2_32>
8020093e: 63 8d 99 16  	beq	s3, s1, 0x80200ab8 <.LBB2_31+0x7e>
80200942: 0d 45        	li	a0, 3
80200944: 23 3c a4 ee  	sd	a0, -264(s0)
80200948: 93 05 84 ef  	addi	a1, s0, -264
8020094c: 23 30 b4 f6  	sd	a1, -160(s0)
80200950: 93 0c 09 03  	addi	s9, s2, 48
80200954: 93 05 04 f6  	addi	a1, s0, -160
80200958: 23 38 b4 f2  	sd	a1, -208(s0)
8020095c: 23 3c 54 f3  	sd	s5, -200(s0)
80200960: 23 30 a4 f5  	sd	s10, -192(s0)
80200964: 23 34 44 f5  	sd	s4, -184(s0)
80200968: 23 38 94 f5  	sd	s9, -176(s0)
8020096c: 23 3c 44 f5  	sd	s4, -168(s0)
80200970: 23 30 64 f1  	sd	s6, -256(s0)
80200974: 91 44        	li	s1, 4
80200976: 23 34 94 f0  	sd	s1, -248(s0)
8020097a: 23 38 74 f1  	sd	s7, -240(s0)
8020097e: 23 3c a4 f0  	sd	a0, -232(s0)
80200982: 93 05 04 f3  	addi	a1, s0, -208
80200986: 23 30 b4 f2  	sd	a1, -224(s0)
8020098a: 23 34 a4 f2  	sd	a0, -216(s0)
8020098e: 13 06 04 f7  	addi	a2, s0, -144
80200992: 23 34 c4 f6  	sd	a2, -152(s0)
80200996: 23 3c a4 f8  	sd	a0, -104(s0)
8020099a: 23 38 b4 f8  	sd	a1, -112(s0)
8020099e: 23 34 a4 f8  	sd	a0, -120(s0)
802009a2: 23 30 74 f9  	sd	s7, -128(s0)
802009a6: 23 3c 94 f6  	sd	s1, -136(s0)
802009aa: 23 38 64 f7  	sd	s6, -144(s0)

00000000802009ae <.LBB2_30>:
; .LBB2_30():
802009ae: 97 a5 00 00  	auipc	a1, 10
802009b2: 93 85 a5 e2  	addi	a1, a1, -470
802009b6: 13 05 84 f6  	addi	a0, s0, -152
802009ba: 13 06 04 f7  	addi	a2, s0, -144
802009be: 97 20 00 00  	auipc	ra, 2
802009c2: e7 80 20 55  	jalr	1362(ra)
802009c6: 63 1c 05 10  	bnez	a0, 0x80200ade <.LBB2_32>
802009ca: 63 87 99 0e  	beq	s3, s1, 0x80200ab8 <.LBB2_31+0x7e>
802009ce: 11 45        	li	a0, 4
802009d0: 23 3c a4 ee  	sd	a0, -264(s0)
802009d4: 93 05 84 ef  	addi	a1, s0, -264
802009d8: 23 30 b4 f6  	sd	a1, -160(s0)
802009dc: 93 04 89 03  	addi	s1, s2, 56
802009e0: 93 05 04 f6  	addi	a1, s0, -160
802009e4: 23 38 b4 f2  	sd	a1, -208(s0)
802009e8: 23 3c 54 f3  	sd	s5, -200(s0)
802009ec: 23 30 94 f5  	sd	s9, -192(s0)
802009f0: 23 34 44 f5  	sd	s4, -184(s0)
802009f4: 23 38 94 f4  	sd	s1, -176(s0)
802009f8: 23 3c 44 f5  	sd	s4, -168(s0)
802009fc: 23 30 64 f1  	sd	s6, -256(s0)
80200a00: 23 34 a4 f0  	sd	a0, -248(s0)
80200a04: 23 38 74 f1  	sd	s7, -240(s0)
80200a08: 8d 45        	li	a1, 3
80200a0a: 23 3c b4 f0  	sd	a1, -232(s0)
80200a0e: 13 06 04 f3  	addi	a2, s0, -208
80200a12: 23 30 c4 f2  	sd	a2, -224(s0)
80200a16: 23 34 b4 f2  	sd	a1, -216(s0)
80200a1a: 93 06 04 f7  	addi	a3, s0, -144
80200a1e: 23 34 d4 f6  	sd	a3, -152(s0)
80200a22: 23 3c b4 f8  	sd	a1, -104(s0)
80200a26: 23 38 c4 f8  	sd	a2, -112(s0)
80200a2a: 23 34 b4 f8  	sd	a1, -120(s0)
80200a2e: 23 30 74 f9  	sd	s7, -128(s0)
80200a32: 23 3c a4 f6  	sd	a0, -136(s0)
80200a36: 23 38 64 f7  	sd	s6, -144(s0)

0000000080200a3a <.LBB2_31>:
; .LBB2_31():
80200a3a: 97 a5 00 00  	auipc	a1, 10
80200a3e: 93 85 e5 d9  	addi	a1, a1, -610
80200a42: 13 05 84 f6  	addi	a0, s0, -152
80200a46: 13 06 04 f7  	addi	a2, s0, -144
80200a4a: 97 20 00 00  	auipc	ra, 2
80200a4e: e7 80 60 4c  	jalr	1222(ra)
80200a52: 51 e5        	bnez	a0, 0x80200ade <.LBB2_32>
80200a54: 15 45        	li	a0, 5
80200a56: 63 81 a9 06  	beq	s3, a0, 0x80200ab8 <.LBB2_31+0x7e>
80200a5a: 23 3c a4 ee  	sd	a0, -264(s0)
80200a5e: 93 0c 84 ef  	addi	s9, s0, -264
80200a62: 23 30 94 f7  	sd	s9, -160(s0)
80200a66: 13 05 09 04  	addi	a0, s2, 64
80200a6a: 93 05 04 f6  	addi	a1, s0, -160
80200a6e: 23 38 b4 f2  	sd	a1, -208(s0)
80200a72: 23 3c 54 f3  	sd	s5, -200(s0)
80200a76: 23 30 94 f4  	sd	s1, -192(s0)
80200a7a: 23 34 44 f5  	sd	s4, -184(s0)
80200a7e: 23 38 a4 f4  	sd	a0, -176(s0)
80200a82: 23 3c 44 f5  	sd	s4, -168(s0)
80200a86: 23 30 64 f1  	sd	s6, -256(s0)
80200a8a: 11 45        	li	a0, 4
80200a8c: 23 34 a4 f0  	sd	a0, -248(s0)
80200a90: 23 38 74 f1  	sd	s7, -240(s0)
80200a94: 0d 45        	li	a0, 3
80200a96: 23 3c a4 f0  	sd	a0, -232(s0)
80200a9a: 93 05 04 f3  	addi	a1, s0, -208
80200a9e: 23 30 b4 f2  	sd	a1, -224(s0)
80200aa2: 23 34 a4 f2  	sd	a0, -216(s0)
80200aa6: 13 05 04 f0  	addi	a0, s0, -256
80200aaa: 97 10 00 00  	auipc	ra, 1
80200aae: e7 80 20 fb  	jalr	-78(ra)
80200ab2: 19 45        	li	a0, 6
80200ab4: 63 98 a9 06  	bne	s3, a0, 0x80200b24 <.LBB2_37+0x18>
80200ab8: 03 35 0c 00  	ld	a0, 0(s8)
80200abc: 05 05        	addi	a0, a0, 1
80200abe: 23 30 ac 00  	sd	a0, 0(s8)
80200ac2: b2 60        	ld	ra, 264(sp)
80200ac4: 12 64        	ld	s0, 256(sp)
80200ac6: ee 74        	ld	s1, 248(sp)
80200ac8: 4e 79        	ld	s2, 240(sp)
80200aca: ae 79        	ld	s3, 232(sp)
80200acc: 0e 7a        	ld	s4, 224(sp)
80200ace: ee 6a        	ld	s5, 216(sp)
80200ad0: 4e 6b        	ld	s6, 208(sp)
80200ad2: ae 6b        	ld	s7, 200(sp)
80200ad4: 0e 6c        	ld	s8, 192(sp)
80200ad6: ea 7c        	ld	s9, 184(sp)
80200ad8: 4a 7d        	ld	s10, 176(sp)
80200ada: 51 61        	addi	sp, sp, 272
80200adc: 82 80        	ret

0000000080200ade <.LBB2_32>:
; .LBB2_32():
80200ade: 17 a5 00 00  	auipc	a0, 10
80200ae2: 13 05 a5 d2  	addi	a0, a0, -726

0000000080200ae6 <.LBB2_33>:
; .LBB2_33():
80200ae6: 97 a6 00 00  	auipc	a3, 10
80200aea: 93 86 26 d5  	addi	a3, a3, -686

0000000080200aee <.LBB2_34>:
; .LBB2_34():
80200aee: 17 a7 00 00  	auipc	a4, 10
80200af2: 13 07 a7 d7  	addi	a4, a4, -646
80200af6: 93 05 b0 02  	li	a1, 43
80200afa: 31 a8        	j	0x80200b16 <.LBB2_37+0xa>

0000000080200afc <.LBB2_35>:
; .LBB2_35():
80200afc: 17 95 00 00  	auipc	a0, 9
80200b00: 13 05 45 7b  	addi	a0, a0, 1972

0000000080200b04 <.LBB2_36>:
; .LBB2_36():
80200b04: 97 96 00 00  	auipc	a3, 9
80200b08: 93 86 c6 7d  	addi	a3, a3, 2012

0000000080200b0c <.LBB2_37>:
; .LBB2_37():
80200b0c: 17 a7 00 00  	auipc	a4, 10
80200b10: 13 07 47 80  	addi	a4, a4, -2044
80200b14: c1 45        	li	a1, 16
80200b16: 13 06 04 f7  	addi	a2, s0, -144
80200b1a: 97 20 00 00  	auipc	ra, 2
80200b1e: e7 80 a0 ad  	jalr	-1318(ra)
80200b22: 00 00        	unimp	
80200b24: 23 3c a4 ee  	sd	a0, -264(s0)
80200b28: 23 30 94 f7  	sd	s9, -160(s0)

0000000080200b2c <.LBB2_38>:
; .LBB2_38():
80200b2c: 17 96 00 00  	auipc	a2, 9
80200b30: 13 06 46 58  	addi	a2, a2, 1412
80200b34: 1d 45        	li	a0, 7
80200b36: 9d 45        	li	a1, 7
80200b38: 97 20 00 00  	auipc	ra, 2
80200b3c: e7 80 e0 a4  	jalr	-1458(ra)
80200b40: 00 00        	unimp	

0000000080200b42 <_ZN2os5batch12run_next_app17h3284c00e3010fbd8E>:
; _ZN2os5batch12run_next_app17h3284c00e3010fbd8E():
80200b42: 1d 71        	addi	sp, sp, -96
80200b44: 86 ec        	sd	ra, 88(sp)
80200b46: a2 e8        	sd	s0, 80(sp)
80200b48: a6 e4        	sd	s1, 72(sp)
80200b4a: ca e0        	sd	s2, 64(sp)
80200b4c: 4e fc        	sd	s3, 56(sp)
80200b4e: 52 f8        	sd	s4, 48(sp)
80200b50: 80 10        	addi	s0, sp, 96
80200b52: 97 00 00 00  	auipc	ra, 0
80200b56: e7 80 c0 0d  	jalr	220(ra)
80200b5a: 97 00 00 00  	auipc	ra, 0
80200b5e: e7 80 c0 18  	jalr	396(ra)
80200b62: aa 84        	mv	s1, a0
80200b64: 10 65        	ld	a2, 8(a0)
80200b66: 2e 89        	mv	s2, a1
80200b68: b2 85        	mv	a1, a2
80200b6a: 97 00 00 00  	auipc	ra, 0
80200b6e: e7 80 80 a2  	jalr	-1496(ra)
80200b72: 88 64        	ld	a0, 8(s1)
80200b74: 05 05        	addi	a0, a0, 1
80200b76: 88 e4        	sd	a0, 8(s1)
80200b78: 03 35 09 00  	ld	a0, 0(s2)
80200b7c: 05 05        	addi	a0, a0, 1
80200b7e: 23 30 a9 00  	sd	a0, 0(s2)
80200b82: 73 25 00 10  	csrr	a0, sstatus
80200b86: 13 79 f5 ef  	andi	s2, a0, -257
80200b8a: 09 6a        	lui	s4, 2
80200b8c: 1b 05 0a ef  	addiw	a0, s4, -272

0000000080200b90 <.LBB3_1>:
; .LBB3_1():
80200b90: 97 54 00 00  	auipc	s1, 5
80200b94: 93 84 04 47  	addi	s1, s1, 1136
80200b98: b3 89 a4 00  	add	s3, s1, a0
80200b9c: 23 b0 09 00  	sd	zero, 0(s3)
80200ba0: 1b 05 8a ef  	addiw	a0, s4, -264
80200ba4: 26 95        	add	a0, a0, s1
80200ba6: 23 30 05 00  	sd	zero, 0(a0)

0000000080200baa <.LBB3_2>:
; .LBB3_2():
80200baa: 17 75 00 00  	auipc	a0, 7
80200bae: 13 05 65 45  	addi	a0, a0, 1110
80200bb2: 52 95        	add	a0, a0, s4
80200bb4: 9b 05 0a f0  	addiw	a1, s4, -256
80200bb8: a6 95        	add	a1, a1, s1
80200bba: 88 e1        	sd	a0, 0(a1)
80200bbc: 1b 05 8a f0  	addiw	a0, s4, -248
80200bc0: 26 95        	add	a0, a0, s1
80200bc2: 13 06 80 0e  	li	a2, 232
80200bc6: 81 45        	li	a1, 0
80200bc8: 97 40 00 00  	auipc	ra, 4
80200bcc: e7 80 a0 d8  	jalr	-630(ra)
80200bd0: 1b 05 0a ff  	addiw	a0, s4, -16
80200bd4: 26 95        	add	a0, a0, s1
80200bd6: 23 30 25 01  	sd	s2, 0(a0)
80200bda: 1b 05 8a ff  	addiw	a0, s4, -8
80200bde: 26 95        	add	a0, a0, s1
80200be0: 93 05 10 20  	li	a1, 513
80200be4: da 05        	slli	a1, a1, 22
80200be6: 0c e1        	sd	a1, 0(a0)
80200be8: 4e 85        	mv	a0, s3
80200bea: 97 00 00 00  	auipc	ra, 0
80200bee: e7 80 e0 50  	jalr	1294(ra)

0000000080200bf2 <.LBB3_3>:
; .LBB3_3():
80200bf2: 17 95 00 00  	auipc	a0, 9
80200bf6: 13 05 e5 64  	addi	a0, a0, 1614
80200bfa: 23 30 a4 fa  	sd	a0, -96(s0)
80200bfe: 05 45        	li	a0, 1
80200c00: 23 34 a4 fa  	sd	a0, -88(s0)
80200c04: 23 38 04 fa  	sd	zero, -80(s0)

0000000080200c08 <.LBB3_4>:
; .LBB3_4():
80200c08: 17 55 00 00  	auipc	a0, 5
80200c0c: 13 05 85 80  	addi	a0, a0, -2040
80200c10: 23 30 a4 fc  	sd	a0, -64(s0)
80200c14: 23 34 04 fc  	sd	zero, -56(s0)

0000000080200c18 <.LBB3_5>:
; .LBB3_5():
80200c18: 97 95 00 00  	auipc	a1, 9
80200c1c: 93 85 85 63  	addi	a1, a1, 1592
80200c20: 13 05 04 fa  	addi	a0, s0, -96
80200c24: 97 20 00 00  	auipc	ra, 2
80200c28: e7 80 20 9a  	jalr	-1630(ra)
80200c2c: 00 00        	unimp	

0000000080200c2e <_ZN66_$LT$os..batch..APP_MENAGER$u20$as$u20$core..ops..deref..Deref$GT$5deref17he0c8a55ee4daff77E.llvm.15454435013090158246>:
; _ZN66_$LT$os..batch..APP_MENAGER$u20$as$u20$core..ops..deref..Deref$GT$5deref17he0c8a55ee4daff77E.llvm.15454435013090158246():
80200c2e: 41 11        	addi	sp, sp, -16
80200c30: 06 e4        	sd	ra, 8(sp)
80200c32: 22 e0        	sd	s0, 0(sp)
80200c34: 00 08        	addi	s0, sp, 16

0000000080200c36 <.LBB4_1>:
; .LBB4_1():
80200c36: 17 d5 01 00  	auipc	a0, 29
80200c3a: 13 05 a5 3c  	addi	a0, a0, 970
80200c3e: a2 60        	ld	ra, 8(sp)
80200c40: 02 64        	ld	s0, 0(sp)
80200c42: 41 01        	addi	sp, sp, 16
80200c44: 17 03 00 00  	auipc	t1, 0
80200c48: 67 00 23 6c  	jr	1730(t1)

0000000080200c4c <_ZN42_$LT$$RF$T$u20$as$u20$core..fmt..Debug$GT$3fmt17h2dc2556f16021648E>:
; _ZN42_$LT$$RF$T$u20$as$u20$core..fmt..Debug$GT$3fmt17h2dc2556f16021648E():
80200c4c: 39 71        	addi	sp, sp, -64
80200c4e: 06 fc        	sd	ra, 56(sp)
80200c50: 22 f8        	sd	s0, 48(sp)
80200c52: 26 f4        	sd	s1, 40(sp)
80200c54: 80 00        	addi	s0, sp, 64
80200c56: 08 61        	ld	a0, 0(a0)
80200c58: 10 61        	ld	a2, 0(a0)
80200c5a: 39 c6        	beqz	a2, 0x80200ca8 <.LBB0_5>
80200c5c: 93 04 85 00  	addi	s1, a0, 8

0000000080200c60 <.LBB0_3>:
; .LBB0_3():
80200c60: 17 96 00 00  	auipc	a2, 9
80200c64: 13 06 c6 60  	addi	a2, a2, 1548
80200c68: 13 05 84 fc  	addi	a0, s0, -56
80200c6c: 91 46        	li	a3, 4
80200c6e: 97 30 00 00  	auipc	ra, 3
80200c72: e7 80 40 9a  	jalr	-1628(ra)
80200c76: 23 30 94 fe  	sd	s1, -32(s0)

0000000080200c7a <.LBB0_4>:
; .LBB0_4():
80200c7a: 17 96 00 00  	auipc	a2, 9
80200c7e: 13 06 66 60  	addi	a2, a2, 1542
80200c82: 13 05 84 fc  	addi	a0, s0, -56
80200c86: 93 05 04 fe  	addi	a1, s0, -32
80200c8a: 97 20 00 00  	auipc	ra, 2
80200c8e: e7 80 60 d8  	jalr	-634(ra)
80200c92: 13 05 84 fc  	addi	a0, s0, -56
80200c96: 97 20 00 00  	auipc	ra, 2
80200c9a: e7 80 e0 e9  	jalr	-354(ra)
80200c9e: e2 70        	ld	ra, 56(sp)
80200ca0: 42 74        	ld	s0, 48(sp)
80200ca2: a2 74        	ld	s1, 40(sp)
80200ca4: 21 61        	addi	sp, sp, 64
80200ca6: 82 80        	ret

0000000080200ca8 <.LBB0_5>:
; .LBB0_5():
80200ca8: 97 96 00 00  	auipc	a3, 9
80200cac: 93 86 06 5d  	addi	a3, a3, 1488
80200cb0: 11 46        	li	a2, 4
80200cb2: 2e 85        	mv	a0, a1
80200cb4: b6 85        	mv	a1, a3
80200cb6: e2 70        	ld	ra, 56(sp)
80200cb8: 42 74        	ld	s0, 48(sp)
80200cba: a2 74        	ld	s1, 40(sp)
80200cbc: 21 61        	addi	sp, sp, 64
80200cbe: 17 33 00 00  	auipc	t1, 3
80200cc2: 67 00 a3 90  	jr	-1782(t1)

0000000080200cc6 <_ZN4core3ptr52drop_in_place$LT$$RF$$u5b$usize$u3b$$u20$20$u5d$$GT$17h734f5401b3132481E>:
; _ZN4core3ptr52drop_in_place$LT$$RF$$u5b$usize$u3b$$u20$20$u5d$$GT$17h734f5401b3132481E():
80200cc6: 41 11        	addi	sp, sp, -16
80200cc8: 06 e4        	sd	ra, 8(sp)
80200cca: 22 e0        	sd	s0, 0(sp)
80200ccc: 00 08        	addi	s0, sp, 16
80200cce: a2 60        	ld	ra, 8(sp)
80200cd0: 02 64        	ld	s0, 0(sp)
80200cd2: 41 01        	addi	sp, sp, 16
80200cd4: 82 80        	ret

0000000080200cd6 <_ZN4core3ptr47drop_in_place$LT$core..cell..BorrowMutError$GT$17h7dd6ee73f462cf0aE.llvm.1603056037848121060>:
; _ZN4core3ptr47drop_in_place$LT$core..cell..BorrowMutError$GT$17h7dd6ee73f462cf0aE.llvm.1603056037848121060():
80200cd6: 41 11        	addi	sp, sp, -16
80200cd8: 06 e4        	sd	ra, 8(sp)
80200cda: 22 e0        	sd	s0, 0(sp)
80200cdc: 00 08        	addi	s0, sp, 16
80200cde: a2 60        	ld	ra, 8(sp)
80200ce0: 02 64        	ld	s0, 0(sp)
80200ce2: 41 01        	addi	sp, sp, 16
80200ce4: 82 80        	ret

0000000080200ce6 <_ZN2os4sync2up19UPSafeCell$LT$T$GT$16exclusive_access17h75b849eb47e4017cE>:
; _ZN2os4sync2up19UPSafeCell$LT$T$GT$16exclusive_access17h75b849eb47e4017cE():
80200ce6: 01 11        	addi	sp, sp, -32
80200ce8: 06 ec        	sd	ra, 24(sp)
80200cea: 22 e8        	sd	s0, 16(sp)
80200cec: 00 10        	addi	s0, sp, 32
80200cee: aa 85        	mv	a1, a0
80200cf0: 08 61        	ld	a0, 0(a0)
80200cf2: 09 e9        	bnez	a0, 0x80200d04 <.LBB4_3>
80200cf4: 7d 56        	li	a2, -1
80200cf6: 13 85 85 00  	addi	a0, a1, 8
80200cfa: 90 e1        	sd	a2, 0(a1)
80200cfc: e2 60        	ld	ra, 24(sp)
80200cfe: 42 64        	ld	s0, 16(sp)
80200d00: 05 61        	addi	sp, sp, 32
80200d02: 82 80        	ret

0000000080200d04 <.LBB4_3>:
; .LBB4_3():
80200d04: 17 95 00 00  	auipc	a0, 9
80200d08: 13 05 c5 5a  	addi	a0, a0, 1452

0000000080200d0c <.LBB4_4>:
; .LBB4_4():
80200d0c: 97 96 00 00  	auipc	a3, 9
80200d10: 93 86 46 5d  	addi	a3, a3, 1492

0000000080200d14 <.LBB4_5>:
; .LBB4_5():
80200d14: 17 97 00 00  	auipc	a4, 9
80200d18: 13 07 c7 5f  	addi	a4, a4, 1532
80200d1c: c1 45        	li	a1, 16
80200d1e: 13 06 84 fe  	addi	a2, s0, -24
80200d22: 97 20 00 00  	auipc	ra, 2
80200d26: e7 80 20 8d  	jalr	-1838(ra)
80200d2a: 00 00        	unimp	

0000000080200d2c <_ZN4core5array69_$LT$impl$u20$core..fmt..Debug$u20$for$u20$$u5b$T$u3b$$u20$N$u5d$$GT$3fmt17h5cd623e3e5134c0fE>:
; _ZN4core5array69_$LT$impl$u20$core..fmt..Debug$u20$for$u20$$u5b$T$u3b$$u20$N$u5d$$GT$3fmt17h5cd623e3e5134c0fE():
80200d2c: 5d 71        	addi	sp, sp, -80
80200d2e: 86 e4        	sd	ra, 72(sp)
80200d30: a2 e0        	sd	s0, 64(sp)
80200d32: 26 fc        	sd	s1, 56(sp)
80200d34: 4a f8        	sd	s2, 48(sp)
80200d36: 4e f4        	sd	s3, 40(sp)
80200d38: 52 f0        	sd	s4, 32(sp)
80200d3a: 80 08        	addi	s0, sp, 80
80200d3c: aa 84        	mv	s1, a0
80200d3e: 13 05 84 fb  	addi	a0, s0, -72
80200d42: 97 30 00 00  	auipc	ra, 3
80200d46: e7 80 c0 90  	jalr	-1780(ra)
80200d4a: 93 89 84 00  	addi	s3, s1, 8
80200d4e: 23 34 94 fc  	sd	s1, -56(s0)

0000000080200d52 <.LBB0_1>:
; .LBB0_1():
80200d52: 17 99 00 00  	auipc	s2, 9
80200d56: 13 09 69 62  	addi	s2, s2, 1574
80200d5a: 13 05 84 fb  	addi	a0, s0, -72
80200d5e: 93 05 84 fc  	addi	a1, s0, -56
80200d62: 4a 86        	mv	a2, s2
80200d64: 97 20 00 00  	auipc	ra, 2
80200d68: e7 80 40 f5  	jalr	-172(ra)
80200d6c: 13 8a 04 01  	addi	s4, s1, 16
80200d70: 23 34 34 fd  	sd	s3, -56(s0)
80200d74: 13 05 84 fb  	addi	a0, s0, -72
80200d78: 93 05 84 fc  	addi	a1, s0, -56
80200d7c: 4a 86        	mv	a2, s2
80200d7e: 97 20 00 00  	auipc	ra, 2
80200d82: e7 80 a0 f3  	jalr	-198(ra)
80200d86: 93 89 84 01  	addi	s3, s1, 24
80200d8a: 23 34 44 fd  	sd	s4, -56(s0)
80200d8e: 13 05 84 fb  	addi	a0, s0, -72
80200d92: 93 05 84 fc  	addi	a1, s0, -56
80200d96: 4a 86        	mv	a2, s2
80200d98: 97 20 00 00  	auipc	ra, 2
80200d9c: e7 80 00 f2  	jalr	-224(ra)
80200da0: 13 8a 04 02  	addi	s4, s1, 32
80200da4: 23 34 34 fd  	sd	s3, -56(s0)
80200da8: 13 05 84 fb  	addi	a0, s0, -72
80200dac: 93 05 84 fc  	addi	a1, s0, -56
80200db0: 4a 86        	mv	a2, s2
80200db2: 97 20 00 00  	auipc	ra, 2
80200db6: e7 80 60 f0  	jalr	-250(ra)
80200dba: 93 89 84 02  	addi	s3, s1, 40
80200dbe: 23 34 44 fd  	sd	s4, -56(s0)
80200dc2: 13 05 84 fb  	addi	a0, s0, -72
80200dc6: 93 05 84 fc  	addi	a1, s0, -56
80200dca: 4a 86        	mv	a2, s2
80200dcc: 97 20 00 00  	auipc	ra, 2
80200dd0: e7 80 c0 ee  	jalr	-276(ra)
80200dd4: 13 8a 04 03  	addi	s4, s1, 48
80200dd8: 23 34 34 fd  	sd	s3, -56(s0)
80200ddc: 13 05 84 fb  	addi	a0, s0, -72
80200de0: 93 05 84 fc  	addi	a1, s0, -56
80200de4: 4a 86        	mv	a2, s2
80200de6: 97 20 00 00  	auipc	ra, 2
80200dea: e7 80 20 ed  	jalr	-302(ra)
80200dee: 93 89 84 03  	addi	s3, s1, 56
80200df2: 23 34 44 fd  	sd	s4, -56(s0)
80200df6: 13 05 84 fb  	addi	a0, s0, -72
80200dfa: 93 05 84 fc  	addi	a1, s0, -56
80200dfe: 4a 86        	mv	a2, s2
80200e00: 97 20 00 00  	auipc	ra, 2
80200e04: e7 80 80 eb  	jalr	-328(ra)
80200e08: 13 8a 04 04  	addi	s4, s1, 64
80200e0c: 23 34 34 fd  	sd	s3, -56(s0)
80200e10: 13 05 84 fb  	addi	a0, s0, -72
80200e14: 93 05 84 fc  	addi	a1, s0, -56
80200e18: 4a 86        	mv	a2, s2
80200e1a: 97 20 00 00  	auipc	ra, 2
80200e1e: e7 80 e0 e9  	jalr	-354(ra)
80200e22: 93 89 84 04  	addi	s3, s1, 72
80200e26: 23 34 44 fd  	sd	s4, -56(s0)
80200e2a: 13 05 84 fb  	addi	a0, s0, -72
80200e2e: 93 05 84 fc  	addi	a1, s0, -56
80200e32: 4a 86        	mv	a2, s2
80200e34: 97 20 00 00  	auipc	ra, 2
80200e38: e7 80 40 e8  	jalr	-380(ra)
80200e3c: 13 8a 04 05  	addi	s4, s1, 80
80200e40: 23 34 34 fd  	sd	s3, -56(s0)
80200e44: 13 05 84 fb  	addi	a0, s0, -72
80200e48: 93 05 84 fc  	addi	a1, s0, -56
80200e4c: 4a 86        	mv	a2, s2
80200e4e: 97 20 00 00  	auipc	ra, 2
80200e52: e7 80 a0 e6  	jalr	-406(ra)
80200e56: 93 89 84 05  	addi	s3, s1, 88
80200e5a: 23 34 44 fd  	sd	s4, -56(s0)
80200e5e: 13 05 84 fb  	addi	a0, s0, -72
80200e62: 93 05 84 fc  	addi	a1, s0, -56
80200e66: 4a 86        	mv	a2, s2
80200e68: 97 20 00 00  	auipc	ra, 2
80200e6c: e7 80 00 e5  	jalr	-432(ra)
80200e70: 13 8a 04 06  	addi	s4, s1, 96
80200e74: 23 34 34 fd  	sd	s3, -56(s0)
80200e78: 13 05 84 fb  	addi	a0, s0, -72
80200e7c: 93 05 84 fc  	addi	a1, s0, -56
80200e80: 4a 86        	mv	a2, s2
80200e82: 97 20 00 00  	auipc	ra, 2
80200e86: e7 80 60 e3  	jalr	-458(ra)
80200e8a: 93 89 84 06  	addi	s3, s1, 104
80200e8e: 23 34 44 fd  	sd	s4, -56(s0)
80200e92: 13 05 84 fb  	addi	a0, s0, -72
80200e96: 93 05 84 fc  	addi	a1, s0, -56
80200e9a: 4a 86        	mv	a2, s2
80200e9c: 97 20 00 00  	auipc	ra, 2
80200ea0: e7 80 c0 e1  	jalr	-484(ra)
80200ea4: 13 8a 04 07  	addi	s4, s1, 112
80200ea8: 23 34 34 fd  	sd	s3, -56(s0)
80200eac: 13 05 84 fb  	addi	a0, s0, -72
80200eb0: 93 05 84 fc  	addi	a1, s0, -56
80200eb4: 4a 86        	mv	a2, s2
80200eb6: 97 20 00 00  	auipc	ra, 2
80200eba: e7 80 20 e0  	jalr	-510(ra)
80200ebe: 93 89 84 07  	addi	s3, s1, 120
80200ec2: 23 34 44 fd  	sd	s4, -56(s0)
80200ec6: 13 05 84 fb  	addi	a0, s0, -72
80200eca: 93 05 84 fc  	addi	a1, s0, -56
80200ece: 4a 86        	mv	a2, s2
80200ed0: 97 20 00 00  	auipc	ra, 2
80200ed4: e7 80 80 de  	jalr	-536(ra)
80200ed8: 13 8a 04 08  	addi	s4, s1, 128
80200edc: 23 34 34 fd  	sd	s3, -56(s0)
80200ee0: 13 05 84 fb  	addi	a0, s0, -72
80200ee4: 93 05 84 fc  	addi	a1, s0, -56
80200ee8: 4a 86        	mv	a2, s2
80200eea: 97 20 00 00  	auipc	ra, 2
80200eee: e7 80 e0 dc  	jalr	-562(ra)
80200ef2: 93 89 84 08  	addi	s3, s1, 136
80200ef6: 23 34 44 fd  	sd	s4, -56(s0)
80200efa: 13 05 84 fb  	addi	a0, s0, -72
80200efe: 93 05 84 fc  	addi	a1, s0, -56
80200f02: 4a 86        	mv	a2, s2
80200f04: 97 20 00 00  	auipc	ra, 2
80200f08: e7 80 40 db  	jalr	-588(ra)
80200f0c: 13 8a 04 09  	addi	s4, s1, 144
80200f10: 23 34 34 fd  	sd	s3, -56(s0)
80200f14: 13 05 84 fb  	addi	a0, s0, -72
80200f18: 93 05 84 fc  	addi	a1, s0, -56
80200f1c: 4a 86        	mv	a2, s2
80200f1e: 97 20 00 00  	auipc	ra, 2
80200f22: e7 80 a0 d9  	jalr	-614(ra)
80200f26: 93 84 84 09  	addi	s1, s1, 152
80200f2a: 23 34 44 fd  	sd	s4, -56(s0)
80200f2e: 13 05 84 fb  	addi	a0, s0, -72
80200f32: 93 05 84 fc  	addi	a1, s0, -56
80200f36: 4a 86        	mv	a2, s2
80200f38: 97 20 00 00  	auipc	ra, 2
80200f3c: e7 80 00 d8  	jalr	-640(ra)
80200f40: 23 34 94 fc  	sd	s1, -56(s0)
80200f44: 13 05 84 fb  	addi	a0, s0, -72
80200f48: 93 05 84 fc  	addi	a1, s0, -56
80200f4c: 4a 86        	mv	a2, s2
80200f4e: 97 20 00 00  	auipc	ra, 2
80200f52: e7 80 a0 d6  	jalr	-662(ra)
80200f56: 13 05 84 fb  	addi	a0, s0, -72
80200f5a: 97 20 00 00  	auipc	ra, 2
80200f5e: e7 80 80 d7  	jalr	-648(ra)
80200f62: a6 60        	ld	ra, 72(sp)
80200f64: 06 64        	ld	s0, 64(sp)
80200f66: e2 74        	ld	s1, 56(sp)
80200f68: 42 79        	ld	s2, 48(sp)
80200f6a: a2 79        	ld	s3, 40(sp)
80200f6c: 02 7a        	ld	s4, 32(sp)
80200f6e: 61 61        	addi	sp, sp, 80
80200f70: 82 80        	ret

0000000080200f72 <_ZN2os3sbi8shutdown17he646eac29ba39915E>:
; _ZN2os3sbi8shutdown17he646eac29ba39915E():
80200f72: 39 71        	addi	sp, sp, -64
80200f74: 06 fc        	sd	ra, 56(sp)
80200f76: 22 f8        	sd	s0, 48(sp)
80200f78: 80 00        	addi	s0, sp, 64
80200f7a: a1 48        	li	a7, 8
80200f7c: 81 45        	li	a1, 0
80200f7e: 01 46        	li	a2, 0
80200f80: 01 45        	li	a0, 0
80200f82: 73 00 00 00  	ecall	

0000000080200f86 <.LBB2_1>:
; .LBB2_1():
80200f86: 17 95 00 00  	auipc	a0, 9
80200f8a: 13 05 a5 3b  	addi	a0, a0, 954
80200f8e: 23 30 a4 fc  	sd	a0, -64(s0)
80200f92: 05 45        	li	a0, 1
80200f94: 23 34 a4 fc  	sd	a0, -56(s0)
80200f98: 23 38 04 fc  	sd	zero, -48(s0)

0000000080200f9c <.LBB2_2>:
; .LBB2_2():
80200f9c: 17 95 00 00  	auipc	a0, 9
80200fa0: 13 05 c5 38  	addi	a0, a0, 908
80200fa4: 23 30 a4 fe  	sd	a0, -32(s0)
80200fa8: 23 34 04 fe  	sd	zero, -24(s0)

0000000080200fac <.LBB2_3>:
; .LBB2_3():
80200fac: 97 95 00 00  	auipc	a1, 9
80200fb0: 93 85 45 3b  	addi	a1, a1, 948
80200fb4: 13 05 04 fc  	addi	a0, s0, -64
80200fb8: 97 10 00 00  	auipc	ra, 1
80200fbc: e7 80 e0 60  	jalr	1550(ra)
80200fc0: 00 00        	unimp	

0000000080200fc2 <_ZN4core3ptr30drop_in_place$LT$$RF$usize$GT$17he35893563b33d4f8E.llvm.9271740500149295505>:
; _ZN4core3ptr30drop_in_place$LT$$RF$usize$GT$17he35893563b33d4f8E.llvm.9271740500149295505():
80200fc2: 41 11        	addi	sp, sp, -16
80200fc4: 06 e4        	sd	ra, 8(sp)
80200fc6: 22 e0        	sd	s0, 0(sp)
80200fc8: 00 08        	addi	s0, sp, 16
80200fca: a2 60        	ld	ra, 8(sp)
80200fcc: 02 64        	ld	s0, 0(sp)
80200fce: 41 01        	addi	sp, sp, 16
80200fd0: 82 80        	ret

0000000080200fd2 <_ZN4core3ptr80drop_in_place$LT$$RF$core..option..Option$LT$$u5b$usize$u3b$$u20$20$u5d$$GT$$GT$17h8a72780a2f94ec80E>:
; _ZN4core3ptr80drop_in_place$LT$$RF$core..option..Option$LT$$u5b$usize$u3b$$u20$20$u5d$$GT$$GT$17h8a72780a2f94ec80E():
80200fd2: 41 11        	addi	sp, sp, -16
80200fd4: 06 e4        	sd	ra, 8(sp)
80200fd6: 22 e0        	sd	s0, 0(sp)
80200fd8: 00 08        	addi	s0, sp, 16
80200fda: a2 60        	ld	ra, 8(sp)
80200fdc: 02 64        	ld	s0, 0(sp)
80200fde: 41 01        	addi	sp, sp, 16
80200fe0: 82 80        	ret

0000000080200fe2 <_ZN67_$LT$os..task..task_info..Task_info$u20$as$u20$core..fmt..Debug$GT$3fmt17hd9b09b4f1b6971aeE>:
; _ZN67_$LT$os..task..task_info..Task_info$u20$as$u20$core..fmt..Debug$GT$3fmt17hd9b09b4f1b6971aeE():
80200fe2: 79 71        	addi	sp, sp, -48
80200fe4: 06 f4        	sd	ra, 40(sp)
80200fe6: 22 f0        	sd	s0, 32(sp)
80200fe8: 26 ec        	sd	s1, 24(sp)
80200fea: 00 18        	addi	s0, sp, 48
80200fec: aa 84        	mv	s1, a0

0000000080200fee <.LBB1_1>:
; .LBB1_1():
80200fee: 17 96 00 00  	auipc	a2, 9
80200ff2: 13 06 a6 3a  	addi	a2, a2, 938
80200ff6: 13 05 04 fd  	addi	a0, s0, -48
80200ffa: a5 46        	li	a3, 9
80200ffc: 97 20 00 00  	auipc	ra, 2
80201000: e7 80 80 5e  	jalr	1512(ra)
80201004: 23 30 94 fe  	sd	s1, -32(s0)

0000000080201008 <.LBB1_2>:
; .LBB1_2():
80201008: 97 95 00 00  	auipc	a1, 9
8020100c: 93 85 c5 26  	addi	a1, a1, 620

0000000080201010 <.LBB1_3>:
; .LBB1_3():
80201010: 17 97 00 00  	auipc	a4, 9
80201014: 13 07 87 39  	addi	a4, a4, 920
80201018: 13 05 04 fd  	addi	a0, s0, -48
8020101c: 11 46        	li	a2, 4
8020101e: 93 06 04 fe  	addi	a3, s0, -32
80201022: 97 20 00 00  	auipc	ra, 2
80201026: e7 80 c0 81  	jalr	-2020(ra)
8020102a: 13 05 04 fd  	addi	a0, s0, -48
8020102e: 97 20 00 00  	auipc	ra, 2
80201032: e7 80 c0 98  	jalr	-1652(ra)
80201036: a2 70        	ld	ra, 40(sp)
80201038: 02 74        	ld	s0, 32(sp)
8020103a: e2 64        	ld	s1, 24(sp)
8020103c: 45 61        	addi	sp, sp, 48
8020103e: 82 80        	ret

0000000080201040 <_ZN2os7syscall7process8sys_exit17h6ee7f00b3d5dbfcfE>:
; _ZN2os7syscall7process8sys_exit17h6ee7f00b3d5dbfcfE():
80201040: 1d 71        	addi	sp, sp, -96
80201042: 86 ec        	sd	ra, 88(sp)
80201044: a2 e8        	sd	s0, 80(sp)
80201046: 80 10        	addi	s0, sp, 96
80201048: 23 26 a4 fa  	sw	a0, -84(s0)
8020104c: 13 05 c4 fa  	addi	a0, s0, -84
80201050: 23 30 a4 fe  	sd	a0, -32(s0)

0000000080201054 <.LBB1_1>:
; .LBB1_1():
80201054: 17 35 00 00  	auipc	a0, 3
80201058: 13 05 c5 4a  	addi	a0, a0, 1196
8020105c: 23 34 a4 fe  	sd	a0, -24(s0)

0000000080201060 <.LBB1_2>:
; .LBB1_2():
80201060: 17 95 00 00  	auipc	a0, 9
80201064: 13 05 05 39  	addi	a0, a0, 912
80201068: 23 38 a4 fa  	sd	a0, -80(s0)
8020106c: 09 45        	li	a0, 2
8020106e: 23 3c a4 fa  	sd	a0, -72(s0)
80201072: 23 30 04 fc  	sd	zero, -64(s0)
80201076: 13 05 04 fe  	addi	a0, s0, -32
8020107a: 23 38 a4 fc  	sd	a0, -48(s0)
8020107e: 05 45        	li	a0, 1
80201080: 23 3c a4 fc  	sd	a0, -40(s0)
80201084: 13 05 04 fb  	addi	a0, s0, -80
80201088: 97 10 00 00  	auipc	ra, 1
8020108c: e7 80 40 9d  	jalr	-1580(ra)
80201090: 97 00 00 00  	auipc	ra, 0
80201094: e7 80 20 ab  	jalr	-1358(ra)
80201098: 00 00        	unimp	
8020109a: 00 00        	unimp	

000000008020109c <__alltraps>:
; __alltraps():
8020109c: 73 11 01 14  	csrrw	sp, sscratch, sp
802010a0: 6d 71        	addi	sp, sp, -272
802010a2: 06 e4        	sd	ra, 8(sp)
802010a4: 0e ec        	sd	gp, 24(sp)
802010a6: 16 f4        	sd	t0, 40(sp)
802010a8: 1a f8        	sd	t1, 48(sp)
802010aa: 1e fc        	sd	t2, 56(sp)
802010ac: a2 e0        	sd	s0, 64(sp)
802010ae: a6 e4        	sd	s1, 72(sp)
802010b0: aa e8        	sd	a0, 80(sp)
802010b2: ae ec        	sd	a1, 88(sp)
802010b4: b2 f0        	sd	a2, 96(sp)
802010b6: b6 f4        	sd	a3, 104(sp)
802010b8: ba f8        	sd	a4, 112(sp)
802010ba: be fc        	sd	a5, 120(sp)
802010bc: 42 e1        	sd	a6, 128(sp)
802010be: 46 e5        	sd	a7, 136(sp)
802010c0: 4a e9        	sd	s2, 144(sp)
802010c2: 4e ed        	sd	s3, 152(sp)
802010c4: 52 f1        	sd	s4, 160(sp)
802010c6: 56 f5        	sd	s5, 168(sp)
802010c8: 5a f9        	sd	s6, 176(sp)
802010ca: 5e fd        	sd	s7, 184(sp)
802010cc: e2 e1        	sd	s8, 192(sp)
802010ce: e6 e5        	sd	s9, 200(sp)
802010d0: ea e9        	sd	s10, 208(sp)
802010d2: ee ed        	sd	s11, 216(sp)
802010d4: f2 f1        	sd	t3, 224(sp)
802010d6: f6 f5        	sd	t4, 232(sp)
802010d8: fa f9        	sd	t5, 240(sp)
802010da: fe fd        	sd	t6, 248(sp)
802010dc: f3 22 00 10  	csrr	t0, sstatus
802010e0: 73 23 10 14  	csrr	t1, sepc
802010e4: 16 e2        	sd	t0, 256(sp)
802010e6: 1a e6        	sd	t1, 264(sp)
802010e8: f3 23 00 14  	csrr	t2, sscratch
802010ec: 1e e8        	sd	t2, 16(sp)
802010ee: 0a 85        	mv	a0, sp
802010f0: 97 00 00 00  	auipc	ra, 0
802010f4: e7 80 a0 0b  	jalr	186(ra)

00000000802010f8 <__restore>:
; __restore():
802010f8: 2a 81        	mv	sp, a0
802010fa: 92 62        	ld	t0, 256(sp)
802010fc: 32 63        	ld	t1, 264(sp)
802010fe: c2 63        	ld	t2, 16(sp)
80201100: 73 90 02 10  	csrw	sstatus, t0
80201104: 73 10 13 14  	csrw	sepc, t1
80201108: 73 90 03 14  	csrw	sscratch, t2
8020110c: a2 60        	ld	ra, 8(sp)
8020110e: e2 61        	ld	gp, 24(sp)
80201110: a2 72        	ld	t0, 40(sp)
80201112: 42 73        	ld	t1, 48(sp)
80201114: e2 73        	ld	t2, 56(sp)
80201116: 06 64        	ld	s0, 64(sp)
80201118: a6 64        	ld	s1, 72(sp)
8020111a: 46 65        	ld	a0, 80(sp)
8020111c: e6 65        	ld	a1, 88(sp)
8020111e: 06 76        	ld	a2, 96(sp)
80201120: a6 76        	ld	a3, 104(sp)
80201122: 46 77        	ld	a4, 112(sp)
80201124: e6 77        	ld	a5, 120(sp)
80201126: 0a 68        	ld	a6, 128(sp)
80201128: aa 68        	ld	a7, 136(sp)
8020112a: 4a 69        	ld	s2, 144(sp)
8020112c: ea 69        	ld	s3, 152(sp)
8020112e: 0a 7a        	ld	s4, 160(sp)
80201130: aa 7a        	ld	s5, 168(sp)
80201132: 4a 7b        	ld	s6, 176(sp)
80201134: ea 7b        	ld	s7, 184(sp)
80201136: 0e 6c        	ld	s8, 192(sp)
80201138: ae 6c        	ld	s9, 200(sp)
8020113a: 4e 6d        	ld	s10, 208(sp)
8020113c: ee 6d        	ld	s11, 216(sp)
8020113e: 0e 7e        	ld	t3, 224(sp)
80201140: ae 7e        	ld	t4, 232(sp)
80201142: 4e 7f        	ld	t5, 240(sp)
80201144: ee 7f        	ld	t6, 248(sp)
80201146: 51 61        	addi	sp, sp, 272
80201148: 73 11 01 14  	csrrw	sp, sscratch, sp
8020114c: 73 00 20 10  	sret	

0000000080201150 <_ZN5riscv8register6scause6Scause5cause17h7e789d52c8a4f36aE>:
; _ZN5riscv8register6scause6Scause5cause17h7e789d52c8a4f36aE():
80201150: 01 11        	addi	sp, sp, -32
80201152: 06 ec        	sd	ra, 24(sp)
80201154: 22 e8        	sd	s0, 16(sp)
80201156: 26 e4        	sd	s1, 8(sp)
80201158: 00 10        	addi	s0, sp, 32
8020115a: 04 61        	ld	s1, 0(a0)
8020115c: 97 10 00 00  	auipc	ra, 1
80201160: e7 80 60 da  	jalr	-602(ra)
80201164: 63 c7 04 00  	bltz	s1, 0x80201172 <_ZN5riscv8register6scause6Scause5cause17h7e789d52c8a4f36aE+0x22>
80201168: 97 10 00 00  	auipc	ra, 1
8020116c: e7 80 20 d7  	jalr	-654(ra)
80201170: 29 a0        	j	0x8020117a <_ZN5riscv8register6scause6Scause5cause17h7e789d52c8a4f36aE+0x2a>
80201172: 97 10 00 00  	auipc	ra, 1
80201176: e7 80 00 d4  	jalr	-704(ra)
8020117a: 93 75 f5 0f  	andi	a1, a0, 255
8020117e: 13 c5 f4 ff  	not	a0, s1
80201182: 7d 91        	srli	a0, a0, 63
80201184: e2 60        	ld	ra, 24(sp)
80201186: 42 64        	ld	s0, 16(sp)
80201188: a2 64        	ld	s1, 8(sp)
8020118a: 05 61        	addi	sp, sp, 32
8020118c: 82 80        	ret

000000008020118e <_ZN2os4trap4init17hd1e5b572b4257c88E>:
; _ZN2os4trap4init17hd1e5b572b4257c88E():
8020118e: 41 11        	addi	sp, sp, -16
80201190: 06 e4        	sd	ra, 8(sp)
80201192: 22 e0        	sd	s0, 0(sp)
80201194: 00 08        	addi	s0, sp, 16

0000000080201196 <.LBB1_1>:
; .LBB1_1():
80201196: 17 05 00 00  	auipc	a0, 0
8020119a: 13 05 65 f0  	addi	a0, a0, -250
8020119e: 73 10 55 10  	csrw	stvec, a0
802011a2: a2 60        	ld	ra, 8(sp)
802011a4: 02 64        	ld	s0, 0(sp)
802011a6: 41 01        	addi	sp, sp, 16
802011a8: 82 80        	ret

00000000802011aa <trap_handler>:
; trap_handler():
802011aa: 75 71        	addi	sp, sp, -144
802011ac: 06 e5        	sd	ra, 136(sp)
802011ae: 22 e1        	sd	s0, 128(sp)
802011b0: a6 fc        	sd	s1, 120(sp)
802011b2: ca f8        	sd	s2, 112(sp)
802011b4: 00 09        	addi	s0, sp, 144
802011b6: 73 29 20 14  	csrr	s2, scause
802011ba: 23 3c 24 f7  	sd	s2, -136(s0)
802011be: f3 25 30 14  	csrr	a1, stval
802011c2: aa 84        	mv	s1, a0
802011c4: 23 30 b4 f8  	sd	a1, -128(s0)
802011c8: 13 05 84 f7  	addi	a0, s0, -136
802011cc: 97 10 00 00  	auipc	ra, 1
802011d0: e7 80 60 d3  	jalr	-714(ra)
802011d4: 63 46 09 06  	bltz	s2, 0x80201240 <.LBB2_11+0xa>
802011d8: 97 10 00 00  	auipc	ra, 1
802011dc: e7 80 20 d0  	jalr	-766(ra)
802011e0: 13 75 f5 0f  	andi	a0, a0, 255
802011e4: 9d 45        	li	a1, 7
802011e6: 63 1f b5 02  	bne	a0, a1, 0x80201224 <trap_handler+0x7a>
802011ea: 03 b5 84 10  	ld	a0, 264(s1)
802011ee: 11 05        	addi	a0, a0, 4
802011f0: 23 b4 a4 10  	sd	a0, 264(s1)
802011f4: ac 68        	ld	a1, 80(s1)
802011f6: b0 6c        	ld	a2, 88(s1)
802011f8: b4 70        	ld	a3, 96(s1)
802011fa: c8 64        	ld	a0, 136(s1)
802011fc: 23 34 b4 f8  	sd	a1, -120(s0)
80201200: 23 38 c4 f8  	sd	a2, -112(s0)
80201204: 23 3c d4 f8  	sd	a3, -104(s0)
80201208: 93 05 84 f8  	addi	a1, s0, -120
8020120c: 97 10 00 00  	auipc	ra, 1
80201210: e7 80 00 8d  	jalr	-1840(ra)
80201214: a8 e8        	sd	a0, 80(s1)
80201216: 26 85        	mv	a0, s1
80201218: aa 60        	ld	ra, 136(sp)
8020121a: 0a 64        	ld	s0, 128(sp)
8020121c: e6 74        	ld	s1, 120(sp)
8020121e: 46 79        	ld	s2, 112(sp)
80201220: 49 61        	addi	sp, sp, 144
80201222: 82 80        	ret
80201224: 89 45        	li	a1, 2
80201226: 63 02 b5 0a  	beq	a0, a1, 0x802012ca <.LBB2_17>
8020122a: 99 45        	li	a1, 6
8020122c: 63 05 b5 00  	beq	a0, a1, 0x80201236 <.LBB2_11>
80201230: ad 45        	li	a1, 11
80201232: 63 1b b5 00  	bne	a0, a1, 0x80201248 <.LBB2_11+0x12>

0000000080201236 <.LBB2_11>:
; .LBB2_11():
80201236: 17 95 00 00  	auipc	a0, 9
8020123a: 13 05 25 30  	addi	a0, a0, 770
8020123e: 51 a8        	j	0x802012d2 <.LBB2_17+0x8>
80201240: 97 10 00 00  	auipc	ra, 1
80201244: e7 80 20 c7  	jalr	-910(ra)
80201248: 13 05 84 f7  	addi	a0, s0, -136
8020124c: 97 00 00 00  	auipc	ra, 0
80201250: e7 80 40 f0  	jalr	-252(ra)
80201254: 23 0c a4 fc  	sb	a0, -40(s0)
80201258: a3 0c b4 fc  	sb	a1, -39(s0)
8020125c: 13 05 84 fd  	addi	a0, s0, -40
80201260: 23 3c a4 fa  	sd	a0, -72(s0)

0000000080201264 <.LBB2_12>:
; .LBB2_12():
80201264: 17 15 00 00  	auipc	a0, 1
80201268: 13 05 45 cb  	addi	a0, a0, -844
8020126c: 23 30 a4 fc  	sd	a0, -64(s0)
80201270: 13 05 04 f8  	addi	a0, s0, -128
80201274: 23 34 a4 fc  	sd	a0, -56(s0)

0000000080201278 <.LBB2_13>:
; .LBB2_13():
80201278: 17 35 00 00  	auipc	a0, 3
8020127c: 13 05 05 e7  	addi	a0, a0, -400
80201280: 23 38 a4 fc  	sd	a0, -48(s0)

0000000080201284 <.LBB2_14>:
; .LBB2_14():
80201284: 17 95 00 00  	auipc	a0, 9
80201288: 13 05 c5 1a  	addi	a0, a0, 428
8020128c: 23 34 a4 f8  	sd	a0, -120(s0)
80201290: 0d 45        	li	a0, 3
80201292: 23 38 a4 f8  	sd	a0, -112(s0)

0000000080201296 <.LBB2_15>:
; .LBB2_15():
80201296: 17 95 00 00  	auipc	a0, 9
8020129a: 13 05 a5 1c  	addi	a0, a0, 458
8020129e: 23 3c a4 f8  	sd	a0, -104(s0)
802012a2: 09 45        	li	a0, 2
802012a4: 23 30 a4 fa  	sd	a0, -96(s0)
802012a8: 93 05 84 fb  	addi	a1, s0, -72
802012ac: 23 34 b4 fa  	sd	a1, -88(s0)
802012b0: 23 38 a4 fa  	sd	a0, -80(s0)

00000000802012b4 <.LBB2_16>:
; .LBB2_16():
802012b4: 97 95 00 00  	auipc	a1, 9
802012b8: 93 85 c5 22  	addi	a1, a1, 556
802012bc: 13 05 84 f8  	addi	a0, s0, -120
802012c0: 97 10 00 00  	auipc	ra, 1
802012c4: e7 80 60 30  	jalr	774(ra)
802012c8: 00 00        	unimp	

00000000802012ca <.LBB2_17>:
; .LBB2_17():
802012ca: 17 95 00 00  	auipc	a0, 9
802012ce: 13 05 e5 2c  	addi	a0, a0, 718
802012d2: 23 34 a4 f8  	sd	a0, -120(s0)
802012d6: 05 45        	li	a0, 1
802012d8: 23 38 a4 f8  	sd	a0, -112(s0)
802012dc: 23 3c 04 f8  	sd	zero, -104(s0)

00000000802012e0 <.LBB2_18>:
; .LBB2_18():
802012e0: 17 95 00 00  	auipc	a0, 9
802012e4: 13 05 05 13  	addi	a0, a0, 304
802012e8: 23 34 a4 fa  	sd	a0, -88(s0)
802012ec: 23 38 04 fa  	sd	zero, -80(s0)
802012f0: 13 05 84 f8  	addi	a0, s0, -120
802012f4: 97 00 00 00  	auipc	ra, 0
802012f8: e7 80 80 76  	jalr	1896(ra)
802012fc: 97 00 00 00  	auipc	ra, 0
80201300: e7 80 60 84  	jalr	-1978(ra)
80201304: 00 00        	unimp	

0000000080201306 <_ZN4spin4once13Once$LT$T$GT$9call_once17hf9a26dd857eaa9ceE>:
; _ZN4spin4once13Once$LT$T$GT$9call_once17hf9a26dd857eaa9ceE():
80201306: 13 01 01 92  	addi	sp, sp, -1760
8020130a: 23 3c 11 6c  	sd	ra, 1752(sp)
8020130e: 23 38 81 6c  	sd	s0, 1744(sp)
80201312: 23 34 91 6c  	sd	s1, 1736(sp)
80201316: 23 30 21 6d  	sd	s2, 1728(sp)
8020131a: 23 3c 31 6b  	sd	s3, 1720(sp)
8020131e: 23 38 41 6b  	sd	s4, 1712(sp)
80201322: 23 34 51 6b  	sd	s5, 1704(sp)
80201326: 23 30 61 6b  	sd	s6, 1696(sp)
8020132a: 23 3c 71 69  	sd	s7, 1688(sp)
8020132e: 23 38 81 69  	sd	s8, 1680(sp)
80201332: 23 34 91 69  	sd	s9, 1672(sp)
80201336: 23 30 a1 69  	sd	s10, 1664(sp)
8020133a: 23 3c b1 67  	sd	s11, 1656(sp)
8020133e: 13 04 01 6e  	addi	s0, sp, 1760
80201342: 2a 89        	mv	s2, a0
80201344: 0f 00 30 03  	fence	rw, rw
80201348: 08 61        	ld	a0, 0(a0)
8020134a: 0f 00 30 02  	fence	r, rw
8020134e: 63 1c 05 1e  	bnez	a0, 0x80201546 <.LBB0_25+0x15c>
80201352: 85 45        	li	a1, 1
80201354: 2f 35 09 16  	lr.d.aqrl	a0, (s2)
80201358: 01 e5        	bnez	a0, 0x80201360 <_ZN4spin4once13Once$LT$T$GT$9call_once17hf9a26dd857eaa9ceE+0x5a>
8020135a: 2f 36 b9 1e  	sc.d.aqrl	a2, a1, (s2)
8020135e: 7d fa        	bnez	a2, 0x80201354 <_ZN4spin4once13Once$LT$T$GT$9call_once17hf9a26dd857eaa9ceE+0x4e>
80201360: 63 13 05 1e  	bnez	a0, 0x80201546 <.LBB0_25+0x15c>
80201364: 23 30 24 93  	sd	s2, -1760(s0)
80201368: 23 04 b4 92  	sb	a1, -1752(s0)

000000008020136c <.LBB0_22>:
; .LBB0_22():
8020136c: 97 b5 00 00  	auipc	a1, 11
80201370: 93 85 45 c9  	addi	a1, a1, -876
80201374: 03 bb 05 00  	ld	s6, 0(a1)
80201378: 23 30 04 96  	sd	zero, -1696(s0)
8020137c: 23 3c 04 94  	sd	zero, -1704(s0)
80201380: 23 38 04 94  	sd	zero, -1712(s0)
80201384: 23 34 04 94  	sd	zero, -1720(s0)
80201388: 23 30 04 94  	sd	zero, -1728(s0)
8020138c: 23 3c 04 92  	sd	zero, -1736(s0)
80201390: 09 45        	li	a0, 2
80201392: 23 34 a4 96  	sd	a0, -1688(s0)
80201396: 23 38 a4 a0  	sd	a0, -1520(s0)
8020139a: 23 3c a4 aa  	sd	a0, -1352(s0)
8020139e: 23 30 a4 b6  	sd	a0, -1184(s0)
802013a2: 23 34 a4 c0  	sd	a0, -1016(s0)
802013a6: 23 38 a4 ca  	sd	a0, -848(s0)
802013aa: 23 3c a4 d4  	sd	a0, -680(s0)
802013ae: 13 05 1b 00  	addi	a0, s6, 1
802013b2: 23 38 04 92  	sd	zero, -1744(s0)
802013b6: 63 60 65 29  	bltu	a0, s6, 0x80201636 <.LBB0_35>
802013ba: 1d 46        	li	a2, 7
802013bc: 63 76 cb 28  	bgeu	s6, a2, 0x80201648 <.LBB0_36>
802013c0: 13 16 35 00  	slli	a2, a0, 3
802013c4: a1 05        	addi	a1, a1, 8
802013c6: 13 05 04 93  	addi	a0, s0, -1744
802013ca: 97 30 00 00  	auipc	ra, 3
802013ce: e7 80 e0 46  	jalr	1134(ra)
802013d2: 81 44        	li	s1, 0
802013d4: 05 4d        	li	s10, 1

00000000802013d6 <.LBB0_23>:
; .LBB0_23():
802013d6: 97 09 00 00  	auipc	s3, 0
802013da: 93 89 c9 c0  	addi	s3, s3, -1012

00000000802013de <.LBB0_24>:
; .LBB0_24():
802013de: 97 9d 00 00  	auipc	s11, 9
802013e2: 93 8d 2d 2f  	addi	s11, s11, 754
802013e6: 13 0c 84 f4  	addi	s8, s0, -184

00000000802013ea <.LBB0_25>:
; .LBB0_25():
802013ea: 17 9a 00 00  	auipc	s4, 9
802013ee: 13 0a ea 3e  	addi	s4, s4, 1006
802013f2: 19 45        	li	a0, 6
802013f4: 63 68 95 1a  	bltu	a0, s1, 0x802015a4 <.LBB0_26>
802013f8: 13 95 34 00  	slli	a0, s1, 3
802013fc: 93 05 04 93  	addi	a1, s0, -1744
80201400: b3 8c a5 00  	add	s9, a1, a0
80201404: 83 bb 0c 00  	ld	s7, 0(s9)
80201408: 83 ba 0b 00  	ld	s5, 0(s7)
8020140c: 13 05 04 e0  	addi	a0, s0, -512
80201410: 13 06 00 0a  	li	a2, 160
80201414: 81 45        	li	a1, 0
80201416: 97 30 00 00  	auipc	ra, 3
8020141a: e7 80 c0 53  	jalr	1340(ra)
8020141e: 23 30 04 ea  	sd	zero, -352(s0)
80201422: 55 45        	li	a0, 21
80201424: 63 f9 aa 1c  	bgeu	s5, a0, 0x802015f6 <.LBB0_31>
80201428: 93 85 8b 00  	addi	a1, s7, 8
8020142c: 13 96 3a 00  	slli	a2, s5, 3
80201430: 13 05 04 e0  	addi	a0, s0, -512
80201434: 97 30 00 00  	auipc	ra, 3
80201438: e7 80 40 40  	jalr	1028(ra)
8020143c: 93 05 04 e0  	addi	a1, s0, -512
80201440: 13 06 00 0a  	li	a2, 160
80201444: 13 05 84 ea  	addi	a0, s0, -344
80201448: 97 30 00 00  	auipc	ra, 3
8020144c: e7 80 00 3f  	jalr	1008(ra)
80201450: 23 30 a4 eb  	sd	s10, -352(s0)
80201454: 13 05 80 0a  	li	a0, 168
80201458: 33 85 a4 02  	mul	a0, s1, a0
8020145c: 93 05 84 96  	addi	a1, s0, -1688
80201460: 2e 95        	add	a0, a0, a1
80201462: 93 05 04 ea  	addi	a1, s0, -352
80201466: 13 06 80 0a  	li	a2, 168
8020146a: 97 30 00 00  	auipc	ra, 3
8020146e: e7 80 e0 3c  	jalr	974(ra)
80201472: 13 05 04 ea  	addi	a0, s0, -352
80201476: 23 34 a4 f4  	sd	a0, -184(s0)
8020147a: 23 38 34 f5  	sd	s3, -176(s0)
8020147e: 13 05 04 f6  	addi	a0, s0, -160
80201482: 23 3c a4 f4  	sd	a0, -168(s0)
80201486: 23 30 b4 f7  	sd	s11, -160(s0)
8020148a: 09 45        	li	a0, 2
8020148c: 23 34 a4 f6  	sd	a0, -152(s0)
80201490: 23 38 04 f6  	sd	zero, -144(s0)
80201494: 23 30 84 f9  	sd	s8, -128(s0)
80201498: 23 34 a4 f9  	sd	s10, -120(s0)
8020149c: 13 05 84 f5  	addi	a0, s0, -168
802014a0: 13 06 04 f6  	addi	a2, s0, -160
802014a4: d2 85        	mv	a1, s4
802014a6: 97 20 00 00  	auipc	ra, 2
802014aa: e7 80 a0 a6  	jalr	-1430(ra)
802014ae: 63 1f 05 14  	bnez	a0, 0x8020160c <.LBB0_32>
802014b2: 33 b5 64 01  	sltu	a0, s1, s6
802014b6: 93 45 15 00  	xori	a1, a0, 1
802014ba: aa 94        	add	s1, s1, a0
802014bc: 33 85 7a 01  	add	a0, s5, s7
802014c0: 33 36 9b 00  	sltu	a2, s6, s1
802014c4: d1 8d        	or	a1, a1, a2
802014c6: 23 b0 ac 00  	sd	a0, 0(s9)
802014ca: 85 d5        	beqz	a1, 0x802013f2 <.LBB0_25+0x8>
802014cc: 03 35 04 96  	ld	a0, -1696(s0)
802014d0: 23 3c a9 04  	sd	a0, 88(s2)
802014d4: 03 35 84 95  	ld	a0, -1704(s0)
802014d8: 23 38 a9 04  	sd	a0, 80(s2)
802014dc: 03 35 04 95  	ld	a0, -1712(s0)
802014e0: 23 34 a9 04  	sd	a0, 72(s2)
802014e4: 03 35 84 94  	ld	a0, -1720(s0)
802014e8: 23 30 a9 04  	sd	a0, 64(s2)
802014ec: 03 35 04 94  	ld	a0, -1728(s0)
802014f0: 23 3c a9 02  	sd	a0, 56(s2)
802014f4: 03 35 84 93  	ld	a0, -1736(s0)
802014f8: 23 38 a9 02  	sd	a0, 48(s2)
802014fc: 03 35 04 93  	ld	a0, -1744(s0)
80201500: 23 34 a9 02  	sd	a0, 40(s2)
80201504: 13 05 09 06  	addi	a0, s2, 96
80201508: 93 05 84 96  	addi	a1, s0, -1688
8020150c: 13 06 80 49  	li	a2, 1176
80201510: 97 30 00 00  	auipc	ra, 3
80201514: e7 80 80 32  	jalr	808(ra)
80201518: 05 45        	li	a0, 1
8020151a: 23 34 a9 00  	sd	a0, 8(s2)
8020151e: 23 38 09 00  	sd	zero, 16(s2)
80201522: 23 3c 69 01  	sd	s6, 24(s2)
80201526: 23 30 09 02  	sd	zero, 32(s2)
8020152a: 23 04 04 92  	sb	zero, -1752(s0)
8020152e: 0f 00 10 03  	fence	rw, w
80201532: 09 45        	li	a0, 2
80201534: 23 30 a9 00  	sd	a0, 0(s2)
80201538: 13 05 04 92  	addi	a0, s0, -1760
8020153c: 97 10 00 00  	auipc	ra, 1
80201540: e7 80 60 91  	jalr	-1770(ra)
80201544: 0d a0        	j	0x80201566 <.LBB0_25+0x17c>
80201546: 85 45        	li	a1, 1
80201548: 63 1c b5 00  	bne	a0, a1, 0x80201560 <.LBB0_25+0x176>
8020154c: 0f 00 00 01  	fence	w, unknown
80201550: 0f 00 30 03  	fence	rw, rw
80201554: 03 35 09 00  	ld	a0, 0(s2)
80201558: 0f 00 30 02  	fence	r, rw
8020155c: e3 08 b5 fe  	beq	a0, a1, 0x8020154c <.LBB0_25+0x162>
80201560: 89 45        	li	a1, 2
80201562: 63 1c b5 04  	bne	a0, a1, 0x802015ba <.LBB0_26+0x16>
80201566: 13 05 09 01  	addi	a0, s2, 16
8020156a: 83 30 81 6d  	ld	ra, 1752(sp)
8020156e: 03 34 01 6d  	ld	s0, 1744(sp)
80201572: 83 34 81 6c  	ld	s1, 1736(sp)
80201576: 03 39 01 6c  	ld	s2, 1728(sp)
8020157a: 83 39 81 6b  	ld	s3, 1720(sp)
8020157e: 03 3a 01 6b  	ld	s4, 1712(sp)
80201582: 83 3a 81 6a  	ld	s5, 1704(sp)
80201586: 03 3b 01 6a  	ld	s6, 1696(sp)
8020158a: 83 3b 81 69  	ld	s7, 1688(sp)
8020158e: 03 3c 01 69  	ld	s8, 1680(sp)
80201592: 83 3c 81 68  	ld	s9, 1672(sp)
80201596: 03 3d 01 68  	ld	s10, 1664(sp)
8020159a: 83 3d 81 67  	ld	s11, 1656(sp)
8020159e: 13 01 01 6e  	addi	sp, sp, 1760
802015a2: 82 80        	ret

00000000802015a4 <.LBB0_26>:
; .LBB0_26():
802015a4: 17 96 00 00  	auipc	a2, 9
802015a8: 13 06 46 0f  	addi	a2, a2, 244
802015ac: 9d 45        	li	a1, 7
802015ae: 26 85        	mv	a0, s1
802015b0: 97 10 00 00  	auipc	ra, 1
802015b4: e7 80 60 fd  	jalr	-42(ra)
802015b8: 00 00        	unimp	
802015ba: 05 e1        	bnez	a0, 0x802015da <.LBB0_29>

00000000802015bc <.LBB0_27>:
; .LBB0_27():
802015bc: 17 95 00 00  	auipc	a0, 9
802015c0: 13 05 45 07  	addi	a0, a0, 116

00000000802015c4 <.LBB0_28>:
; .LBB0_28():
802015c4: 17 96 00 00  	auipc	a2, 9
802015c8: 13 06 46 09  	addi	a2, a2, 148
802015cc: 93 05 80 02  	li	a1, 40
802015d0: 97 10 00 00  	auipc	ra, 1
802015d4: e7 80 a0 f8  	jalr	-118(ra)
802015d8: 00 00        	unimp	

00000000802015da <.LBB0_29>:
; .LBB0_29():
802015da: 17 95 00 00  	auipc	a0, 9
802015de: 13 05 e5 fc  	addi	a0, a0, -50

00000000802015e2 <.LBB0_30>:
; .LBB0_30():
802015e2: 17 96 00 00  	auipc	a2, 9
802015e6: 13 06 66 03  	addi	a2, a2, 54
802015ea: c5 45        	li	a1, 17
802015ec: 97 10 00 00  	auipc	ra, 1
802015f0: e7 80 e0 f6  	jalr	-146(ra)
802015f4: 00 00        	unimp	

00000000802015f6 <.LBB0_31>:
; .LBB0_31():
802015f6: 17 96 00 00  	auipc	a2, 9
802015fa: 13 06 a6 0b  	addi	a2, a2, 186
802015fe: d1 45        	li	a1, 20
80201600: 56 85        	mv	a0, s5
80201602: 97 20 00 00  	auipc	ra, 2
80201606: e7 80 80 28  	jalr	648(ra)
8020160a: 00 00        	unimp	

000000008020160c <.LBB0_32>:
; .LBB0_32():
8020160c: 17 95 00 00  	auipc	a0, 9
80201610: 13 05 c5 1f  	addi	a0, a0, 508

0000000080201614 <.LBB0_33>:
; .LBB0_33():
80201614: 97 96 00 00  	auipc	a3, 9
80201618: 93 86 46 22  	addi	a3, a3, 548

000000008020161c <.LBB0_34>:
; .LBB0_34():
8020161c: 17 97 00 00  	auipc	a4, 9
80201620: 13 07 c7 24  	addi	a4, a4, 588
80201624: 93 05 b0 02  	li	a1, 43
80201628: 13 06 04 f6  	addi	a2, s0, -160
8020162c: 97 10 00 00  	auipc	ra, 1
80201630: e7 80 80 fc  	jalr	-56(ra)
80201634: 00 00        	unimp	

0000000080201636 <.LBB0_35>:
; .LBB0_35():
80201636: 17 95 00 00  	auipc	a0, 9
8020163a: 13 05 a5 04  	addi	a0, a0, 74
8020163e: 97 20 00 00  	auipc	ra, 2
80201642: e7 80 40 2f  	jalr	756(ra)
80201646: 00 00        	unimp	

0000000080201648 <.LBB0_36>:
; .LBB0_36():
80201648: 17 96 00 00  	auipc	a2, 9
8020164c: 13 06 86 03  	addi	a2, a2, 56
80201650: 9d 45        	li	a1, 7
80201652: 97 20 00 00  	auipc	ra, 2
80201656: e7 80 80 23  	jalr	568(ra)
8020165a: 00 00        	unimp	

000000008020165c <rust_begin_unwind>:
; rust_begin_unwind():
8020165c: 35 71        	addi	sp, sp, -160
8020165e: 06 ed        	sd	ra, 152(sp)
80201660: 22 e9        	sd	s0, 144(sp)
80201662: 26 e5        	sd	s1, 136(sp)
80201664: 00 11        	addi	s0, sp, 160
80201666: aa 84        	mv	s1, a0
80201668: 97 10 00 00  	auipc	ra, 1
8020166c: e7 80 e0 ee  	jalr	-274(ra)
80201670: 15 e5        	bnez	a0, 0x8020169c <.LBB0_10+0x16>
80201672: 26 85        	mv	a0, s1
80201674: 97 10 00 00  	auipc	ra, 1
80201678: e7 80 e0 ed  	jalr	-290(ra)
8020167c: 31 ed        	bnez	a0, 0x802016d8 <.LBB0_12+0x16>

000000008020167e <.LBB0_9>:
; .LBB0_9():
8020167e: 17 95 00 00  	auipc	a0, 9
80201682: 13 05 25 07  	addi	a0, a0, 114

0000000080201686 <.LBB0_10>:
; .LBB0_10():
80201686: 17 96 00 00  	auipc	a2, 9
8020168a: 13 06 a6 0d  	addi	a2, a2, 218
8020168e: 93 05 b0 02  	li	a1, 43
80201692: 97 10 00 00  	auipc	ra, 1
80201696: e7 80 80 ec  	jalr	-312(ra)
8020169a: 00 00        	unimp	
8020169c: 0c 61        	ld	a1, 0(a0)
8020169e: 10 65        	ld	a2, 8(a0)
802016a0: 23 38 b4 f8  	sd	a1, -112(s0)
802016a4: 23 3c c4 f8  	sd	a2, -104(s0)
802016a8: 08 49        	lw	a0, 16(a0)
802016aa: 23 22 a4 fa  	sw	a0, -92(s0)
802016ae: 26 85        	mv	a0, s1
802016b0: 97 10 00 00  	auipc	ra, 1
802016b4: e7 80 20 ea  	jalr	-350(ra)
802016b8: 41 e5        	bnez	a0, 0x80201740 <.LBB0_15+0x24>

00000000802016ba <.LBB0_11>:
; .LBB0_11():
802016ba: 17 95 00 00  	auipc	a0, 9
802016be: 13 05 65 03  	addi	a0, a0, 54

00000000802016c2 <.LBB0_12>:
; .LBB0_12():
802016c2: 17 96 00 00  	auipc	a2, 9
802016c6: 13 06 e6 0f  	addi	a2, a2, 254
802016ca: 93 05 b0 02  	li	a1, 43
802016ce: 97 10 00 00  	auipc	ra, 1
802016d2: e7 80 c0 e8  	jalr	-372(ra)
802016d6: 00 00        	unimp	
802016d8: 23 38 a4 fa  	sd	a0, -80(s0)
802016dc: 13 05 04 fb  	addi	a0, s0, -80
802016e0: 23 30 a4 f6  	sd	a0, -160(s0)

00000000802016e4 <.LBB0_13>:
; .LBB0_13():
802016e4: 17 05 00 00  	auipc	a0, 0
802016e8: 13 05 c5 71  	addi	a0, a0, 1820
802016ec: 23 34 a4 f6  	sd	a0, -152(s0)
802016f0: 13 05 84 fb  	addi	a0, s0, -72
802016f4: 23 38 a4 f8  	sd	a0, -112(s0)

00000000802016f8 <.LBB0_14>:
; .LBB0_14():
802016f8: 17 95 00 00  	auipc	a0, 9
802016fc: 13 05 05 03  	addi	a0, a0, 48
80201700: 23 3c a4 fa  	sd	a0, -72(s0)
80201704: 09 45        	li	a0, 2
80201706: 23 30 a4 fc  	sd	a0, -64(s0)
8020170a: 23 34 04 fc  	sd	zero, -56(s0)
8020170e: 13 05 04 f6  	addi	a0, s0, -160
80201712: 23 3c a4 fc  	sd	a0, -40(s0)
80201716: 05 45        	li	a0, 1
80201718: 23 30 a4 fe  	sd	a0, -32(s0)

000000008020171c <.LBB0_15>:
; .LBB0_15():
8020171c: 97 95 00 00  	auipc	a1, 9
80201720: 93 85 c5 0b  	addi	a1, a1, 188
80201724: 13 05 04 f9  	addi	a0, s0, -112
80201728: 13 06 84 fb  	addi	a2, s0, -72
8020172c: 97 10 00 00  	auipc	ra, 1
80201730: e7 80 40 7e  	jalr	2020(ra)
80201734: 49 e9        	bnez	a0, 0x802017c6 <.LBB0_21>
80201736: 97 00 00 00  	auipc	ra, 0
8020173a: e7 80 c0 83  	jalr	-1988(ra)
8020173e: 00 00        	unimp	
80201740: 23 34 a4 fa  	sd	a0, -88(s0)
80201744: 13 05 04 f9  	addi	a0, s0, -112
80201748: 23 30 a4 f6  	sd	a0, -160(s0)

000000008020174c <.LBB0_16>:
; .LBB0_16():
8020174c: 17 05 00 00  	auipc	a0, 0
80201750: 13 05 c5 6c  	addi	a0, a0, 1740
80201754: 23 34 a4 f6  	sd	a0, -152(s0)
80201758: 13 05 44 fa  	addi	a0, s0, -92
8020175c: 23 38 a4 f6  	sd	a0, -144(s0)

0000000080201760 <.LBB0_17>:
; .LBB0_17():
80201760: 17 35 00 00  	auipc	a0, 3
80201764: 13 05 45 dc  	addi	a0, a0, -572
80201768: 23 3c a4 f6  	sd	a0, -136(s0)
8020176c: 13 05 84 fa  	addi	a0, s0, -88
80201770: 23 30 a4 f8  	sd	a0, -128(s0)

0000000080201774 <.LBB0_18>:
; .LBB0_18():
80201774: 17 05 00 00  	auipc	a0, 0
80201778: 13 05 c5 68  	addi	a0, a0, 1676
8020177c: 23 34 a4 f8  	sd	a0, -120(s0)
80201780: 13 05 84 fb  	addi	a0, s0, -72
80201784: 23 38 a4 fa  	sd	a0, -80(s0)

0000000080201788 <.LBB0_19>:
; .LBB0_19():
80201788: 17 95 00 00  	auipc	a0, 9
8020178c: 13 05 85 ff  	addi	a0, a0, -8
80201790: 23 3c a4 fa  	sd	a0, -72(s0)
80201794: 11 45        	li	a0, 4
80201796: 23 30 a4 fc  	sd	a0, -64(s0)
8020179a: 23 34 04 fc  	sd	zero, -56(s0)
8020179e: 13 05 04 f6  	addi	a0, s0, -160
802017a2: 23 3c a4 fc  	sd	a0, -40(s0)
802017a6: 0d 45        	li	a0, 3
802017a8: 23 30 a4 fe  	sd	a0, -32(s0)

00000000802017ac <.LBB0_20>:
; .LBB0_20():
802017ac: 97 95 00 00  	auipc	a1, 9
802017b0: 93 85 c5 02  	addi	a1, a1, 44
802017b4: 13 05 04 fb  	addi	a0, s0, -80
802017b8: 13 06 84 fb  	addi	a2, s0, -72
802017bc: 97 10 00 00  	auipc	ra, 1
802017c0: e7 80 40 75  	jalr	1876(ra)
802017c4: 2d d9        	beqz	a0, 0x80201736 <.LBB0_15+0x1a>

00000000802017c6 <.LBB0_21>:
; .LBB0_21():
802017c6: 17 95 00 00  	auipc	a0, 9
802017ca: 13 05 25 04  	addi	a0, a0, 66

00000000802017ce <.LBB0_22>:
; .LBB0_22():
802017ce: 97 96 00 00  	auipc	a3, 9
802017d2: 93 86 a6 06  	addi	a3, a3, 106

00000000802017d6 <.LBB0_23>:
; .LBB0_23():
802017d6: 17 97 00 00  	auipc	a4, 9
802017da: 13 07 27 09  	addi	a4, a4, 146
802017de: 93 05 b0 02  	li	a1, 43
802017e2: 13 06 84 fb  	addi	a2, s0, -72
802017e6: 97 10 00 00  	auipc	ra, 1
802017ea: e7 80 e0 e0  	jalr	-498(ra)
802017ee: 00 00        	unimp	

00000000802017f0 <_ZN4core3ptr52drop_in_place$LT$$RF$mut$u20$os..console..Stdout$GT$17hf94488ad7ed82e75E.llvm.4938659411644078660>:
; _ZN4core3ptr52drop_in_place$LT$$RF$mut$u20$os..console..Stdout$GT$17hf94488ad7ed82e75E.llvm.4938659411644078660():
802017f0: 41 11        	addi	sp, sp, -16
802017f2: 06 e4        	sd	ra, 8(sp)
802017f4: 22 e0        	sd	s0, 0(sp)
802017f6: 00 08        	addi	s0, sp, 16
802017f8: a2 60        	ld	ra, 8(sp)
802017fa: 02 64        	ld	s0, 0(sp)
802017fc: 41 01        	addi	sp, sp, 16
802017fe: 82 80        	ret

0000000080201800 <_ZN50_$LT$$RF$mut$u20$W$u20$as$u20$core..fmt..Write$GT$10write_char17h77a4d3884bea4effE.llvm.4938659411644078660>:
; _ZN50_$LT$$RF$mut$u20$W$u20$as$u20$core..fmt..Write$GT$10write_char17h77a4d3884bea4effE.llvm.4938659411644078660():
80201800: 01 11        	addi	sp, sp, -32
80201802: 06 ec        	sd	ra, 24(sp)
80201804: 22 e8        	sd	s0, 16(sp)
80201806: 00 10        	addi	s0, sp, 32
80201808: 1b 85 05 00  	sext.w	a0, a1
8020180c: 13 06 00 08  	li	a2, 128
80201810: 23 26 04 fe  	sw	zero, -20(s0)
80201814: 63 76 c5 00  	bgeu	a0, a2, 0x80201820 <_ZN50_$LT$$RF$mut$u20$W$u20$as$u20$core..fmt..Write$GT$10write_char17h77a4d3884bea4effE.llvm.4938659411644078660+0x20>
80201818: 23 06 b4 fe  	sb	a1, -20(s0)
8020181c: 05 45        	li	a0, 1
8020181e: 59 a8        	j	0x802018b4 <_ZN50_$LT$$RF$mut$u20$W$u20$as$u20$core..fmt..Write$GT$10write_char17h77a4d3884bea4effE.llvm.4938659411644078660+0xb4>
80201820: 1b d5 b5 00  	srliw	a0, a1, 11
80201824: 05 e1        	bnez	a0, 0x80201844 <_ZN50_$LT$$RF$mut$u20$W$u20$as$u20$core..fmt..Write$GT$10write_char17h77a4d3884bea4effE.llvm.4938659411644078660+0x44>
80201826: 13 d5 65 00  	srli	a0, a1, 6
8020182a: 93 f5 f5 03  	andi	a1, a1, 63
8020182e: 13 66 05 fc  	ori	a2, a0, -64
80201832: 23 06 c4 fe  	sb	a2, -20(s0)
80201836: 13 e5 05 08  	ori	a0, a1, 128
8020183a: a3 06 a4 fe  	sb	a0, -19(s0)
8020183e: 09 45        	li	a0, 2
80201840: b2 85        	mv	a1, a2
80201842: 8d a8        	j	0x802018b4 <_ZN50_$LT$$RF$mut$u20$W$u20$as$u20$core..fmt..Write$GT$10write_char17h77a4d3884bea4effE.llvm.4938659411644078660+0xb4>
80201844: 1b d5 05 01  	srliw	a0, a1, 16
80201848: 05 e9        	bnez	a0, 0x80201878 <_ZN50_$LT$$RF$mut$u20$W$u20$as$u20$core..fmt..Write$GT$10write_char17h77a4d3884bea4effE.llvm.4938659411644078660+0x78>
8020184a: 1b d5 c5 00  	srliw	a0, a1, 12
8020184e: 1b d6 65 00  	srliw	a2, a1, 6
80201852: 93 f5 f5 03  	andi	a1, a1, 63
80201856: 93 66 05 fe  	ori	a3, a0, -32
8020185a: 23 06 d4 fe  	sb	a3, -20(s0)
8020185e: 13 75 f6 03  	andi	a0, a2, 63
80201862: 13 65 05 08  	ori	a0, a0, 128
80201866: a3 06 a4 fe  	sb	a0, -19(s0)
8020186a: 13 e5 05 08  	ori	a0, a1, 128
8020186e: 23 07 a4 fe  	sb	a0, -18(s0)
80201872: 0d 45        	li	a0, 3
80201874: b6 85        	mv	a1, a3
80201876: 3d a8        	j	0x802018b4 <_ZN50_$LT$$RF$mut$u20$W$u20$as$u20$core..fmt..Write$GT$10write_char17h77a4d3884bea4effE.llvm.4938659411644078660+0xb4>
80201878: 1b d5 25 01  	srliw	a0, a1, 18
8020187c: 1b d6 c5 00  	srliw	a2, a1, 12
80201880: 9b d6 65 00  	srliw	a3, a1, 6
80201884: 93 f5 f5 03  	andi	a1, a1, 63
80201888: 13 67 05 ff  	ori	a4, a0, -16
8020188c: 23 06 e4 fe  	sb	a4, -20(s0)
80201890: 13 75 f6 03  	andi	a0, a2, 63
80201894: 13 65 05 08  	ori	a0, a0, 128
80201898: a3 06 a4 fe  	sb	a0, -19(s0)
8020189c: 13 f5 f6 03  	andi	a0, a3, 63
802018a0: 13 65 05 08  	ori	a0, a0, 128
802018a4: 23 07 a4 fe  	sb	a0, -18(s0)
802018a8: 13 e5 05 08  	ori	a0, a1, 128
802018ac: a3 07 a4 fe  	sb	a0, -17(s0)
802018b0: 11 45        	li	a0, 4
802018b2: ba 85        	mv	a1, a4
802018b4: 93 06 c4 fe  	addi	a3, s0, -20
802018b8: 33 87 a6 00  	add	a4, a3, a0
802018bc: 13 03 f0 0d  	li	t1, 223
802018c0: 13 08 00 0f  	li	a6, 240
802018c4: b7 02 11 00  	lui	t0, 272
802018c8: 85 48        	li	a7, 1
802018ca: 13 95 85 03  	slli	a0, a1, 56
802018ce: 13 56 85 43  	srai	a2, a0, 56
802018d2: 13 f5 f5 0f  	andi	a0, a1, 255
802018d6: 63 4a 06 00  	bltz	a2, 0x802018ea <_ZN50_$LT$$RF$mut$u20$W$u20$as$u20$core..fmt..Write$GT$10write_char17h77a4d3884bea4effE.llvm.4938659411644078660+0xea>
802018da: 85 06        	addi	a3, a3, 1
802018dc: 81 45        	li	a1, 0
802018de: 01 46        	li	a2, 0
802018e0: 73 00 00 00  	ecall	
802018e4: 63 9a e6 06  	bne	a3, a4, 0x80201958 <_ZN50_$LT$$RF$mut$u20$W$u20$as$u20$core..fmt..Write$GT$10write_char17h77a4d3884bea4effE.llvm.4938659411644078660+0x158>
802018e8: 59 a0        	j	0x8020196e <_ZN50_$LT$$RF$mut$u20$W$u20$as$u20$core..fmt..Write$GT$10write_char17h77a4d3884bea4effE.llvm.4938659411644078660+0x16e>
802018ea: 03 c6 16 00  	lbu	a2, 1(a3)
802018ee: fd 89        	andi	a1, a1, 31
802018f0: 13 76 f6 03  	andi	a2, a2, 63
802018f4: 63 7d a3 02  	bgeu	t1, a0, 0x8020192e <_ZN50_$LT$$RF$mut$u20$W$u20$as$u20$core..fmt..Write$GT$10write_char17h77a4d3884bea4effE.llvm.4938659411644078660+0x12e>
802018f8: 83 c7 26 00  	lbu	a5, 2(a3)
802018fc: 1a 06        	slli	a2, a2, 6
802018fe: 93 f7 f7 03  	andi	a5, a5, 63
80201902: 5d 8e        	or	a2, a2, a5
80201904: 63 60 05 05  	bltu	a0, a6, 0x80201944 <_ZN50_$LT$$RF$mut$u20$W$u20$as$u20$core..fmt..Write$GT$10write_char17h77a4d3884bea4effE.llvm.4938659411644078660+0x144>
80201908: 03 c5 36 00  	lbu	a0, 3(a3)
8020190c: f6 15        	slli	a1, a1, 61
8020190e: ad 91        	srli	a1, a1, 43
80201910: 1a 06        	slli	a2, a2, 6
80201912: 13 75 f5 03  	andi	a0, a0, 63
80201916: 51 8d        	or	a0, a0, a2
80201918: 4d 8d        	or	a0, a0, a1
8020191a: 63 0a 55 04  	beq	a0, t0, 0x8020196e <_ZN50_$LT$$RF$mut$u20$W$u20$as$u20$core..fmt..Write$GT$10write_char17h77a4d3884bea4effE.llvm.4938659411644078660+0x16e>
8020191e: 91 06        	addi	a3, a3, 4
80201920: 81 45        	li	a1, 0
80201922: 01 46        	li	a2, 0
80201924: 73 00 00 00  	ecall	
80201928: 63 98 e6 02  	bne	a3, a4, 0x80201958 <_ZN50_$LT$$RF$mut$u20$W$u20$as$u20$core..fmt..Write$GT$10write_char17h77a4d3884bea4effE.llvm.4938659411644078660+0x158>
8020192c: 89 a0        	j	0x8020196e <_ZN50_$LT$$RF$mut$u20$W$u20$as$u20$core..fmt..Write$GT$10write_char17h77a4d3884bea4effE.llvm.4938659411644078660+0x16e>
8020192e: 89 06        	addi	a3, a3, 2
80201930: 13 95 65 00  	slli	a0, a1, 6
80201934: 51 8d        	or	a0, a0, a2
80201936: 81 45        	li	a1, 0
80201938: 01 46        	li	a2, 0
8020193a: 73 00 00 00  	ecall	
8020193e: 63 9d e6 00  	bne	a3, a4, 0x80201958 <_ZN50_$LT$$RF$mut$u20$W$u20$as$u20$core..fmt..Write$GT$10write_char17h77a4d3884bea4effE.llvm.4938659411644078660+0x158>
80201942: 35 a0        	j	0x8020196e <_ZN50_$LT$$RF$mut$u20$W$u20$as$u20$core..fmt..Write$GT$10write_char17h77a4d3884bea4effE.llvm.4938659411644078660+0x16e>
80201944: 8d 06        	addi	a3, a3, 3
80201946: 13 95 c5 00  	slli	a0, a1, 12
8020194a: 51 8d        	or	a0, a0, a2
8020194c: 81 45        	li	a1, 0
8020194e: 01 46        	li	a2, 0
80201950: 73 00 00 00  	ecall	
80201954: 63 8d e6 00  	beq	a3, a4, 0x8020196e <_ZN50_$LT$$RF$mut$u20$W$u20$as$u20$core..fmt..Write$GT$10write_char17h77a4d3884bea4effE.llvm.4938659411644078660+0x16e>
80201958: 83 c5 06 00  	lbu	a1, 0(a3)
8020195c: 13 95 85 03  	slli	a0, a1, 56
80201960: 13 56 85 43  	srai	a2, a0, 56
80201964: 13 f5 f5 0f  	andi	a0, a1, 255
80201968: e3 59 06 f6  	bgez	a2, 0x802018da <_ZN50_$LT$$RF$mut$u20$W$u20$as$u20$core..fmt..Write$GT$10write_char17h77a4d3884bea4effE.llvm.4938659411644078660+0xda>
8020196c: bd bf        	j	0x802018ea <_ZN50_$LT$$RF$mut$u20$W$u20$as$u20$core..fmt..Write$GT$10write_char17h77a4d3884bea4effE.llvm.4938659411644078660+0xea>
8020196e: 01 45        	li	a0, 0
80201970: e2 60        	ld	ra, 24(sp)
80201972: 42 64        	ld	s0, 16(sp)
80201974: 05 61        	addi	sp, sp, 32
80201976: 82 80        	ret

0000000080201978 <_ZN50_$LT$$RF$mut$u20$W$u20$as$u20$core..fmt..Write$GT$9write_fmt17h7e6624995979b9a7E.llvm.4938659411644078660>:
; _ZN50_$LT$$RF$mut$u20$W$u20$as$u20$core..fmt..Write$GT$9write_fmt17h7e6624995979b9a7E.llvm.4938659411644078660():
80201978: 5d 71        	addi	sp, sp, -80
8020197a: 86 e4        	sd	ra, 72(sp)
8020197c: a2 e0        	sd	s0, 64(sp)
8020197e: 80 08        	addi	s0, sp, 80
80201980: 08 61        	ld	a0, 0(a0)
80201982: 90 75        	ld	a2, 40(a1)
80201984: 94 71        	ld	a3, 32(a1)
80201986: 23 3c a4 fa  	sd	a0, -72(s0)
8020198a: 23 34 c4 fe  	sd	a2, -24(s0)
8020198e: 23 30 d4 fe  	sd	a3, -32(s0)
80201992: 88 6d        	ld	a0, 24(a1)
80201994: 90 69        	ld	a2, 16(a1)
80201996: 94 65        	ld	a3, 8(a1)
80201998: 8c 61        	ld	a1, 0(a1)
8020199a: 23 3c a4 fc  	sd	a0, -40(s0)
8020199e: 23 38 c4 fc  	sd	a2, -48(s0)
802019a2: 23 34 d4 fc  	sd	a3, -56(s0)
802019a6: 23 30 b4 fc  	sd	a1, -64(s0)

00000000802019aa <.LBB2_1>:
; .LBB2_1():
802019aa: 97 95 00 00  	auipc	a1, 9
802019ae: 93 85 e5 e2  	addi	a1, a1, -466
802019b2: 13 05 84 fb  	addi	a0, s0, -72
802019b6: 13 06 04 fc  	addi	a2, s0, -64
802019ba: 97 10 00 00  	auipc	ra, 1
802019be: e7 80 60 55  	jalr	1366(ra)
802019c2: a6 60        	ld	ra, 72(sp)
802019c4: 06 64        	ld	s0, 64(sp)
802019c6: 61 61        	addi	sp, sp, 80
802019c8: 82 80        	ret

00000000802019ca <_ZN50_$LT$$RF$mut$u20$W$u20$as$u20$core..fmt..Write$GT$9write_str17h982ff52fc8c25155E.llvm.4938659411644078660>:
; _ZN50_$LT$$RF$mut$u20$W$u20$as$u20$core..fmt..Write$GT$9write_str17h982ff52fc8c25155E.llvm.4938659411644078660():
802019ca: 41 11        	addi	sp, sp, -16
802019cc: 06 e4        	sd	ra, 8(sp)
802019ce: 22 e0        	sd	s0, 0(sp)
802019d0: 00 08        	addi	s0, sp, 16
802019d2: 41 c2        	beqz	a2, 0x80201a52 <_ZN50_$LT$$RF$mut$u20$W$u20$as$u20$core..fmt..Write$GT$9write_str17h982ff52fc8c25155E.llvm.4938659411644078660+0x88>
802019d4: ae 86        	mv	a3, a1
802019d6: 33 87 c5 00  	add	a4, a1, a2
802019da: 13 03 f0 0d  	li	t1, 223
802019de: 13 08 00 0f  	li	a6, 240
802019e2: b7 02 11 00  	lui	t0, 272
802019e6: 85 48        	li	a7, 1
802019e8: 01 a8        	j	0x802019f8 <_ZN50_$LT$$RF$mut$u20$W$u20$as$u20$core..fmt..Write$GT$9write_str17h982ff52fc8c25155E.llvm.4938659411644078660+0x2e>
802019ea: 85 06        	addi	a3, a3, 1
802019ec: 81 45        	li	a1, 0
802019ee: 01 46        	li	a2, 0
802019f0: 73 00 00 00  	ecall	
802019f4: 63 8f e6 04  	beq	a3, a4, 0x80201a52 <_ZN50_$LT$$RF$mut$u20$W$u20$as$u20$core..fmt..Write$GT$9write_str17h982ff52fc8c25155E.llvm.4938659411644078660+0x88>
802019f8: 83 85 06 00  	lb	a1, 0(a3)
802019fc: 13 f5 f5 0f  	andi	a0, a1, 255
80201a00: e3 d5 05 fe  	bgez	a1, 0x802019ea <_ZN50_$LT$$RF$mut$u20$W$u20$as$u20$core..fmt..Write$GT$9write_str17h982ff52fc8c25155E.llvm.4938659411644078660+0x20>
80201a04: 03 c6 16 00  	lbu	a2, 1(a3)
80201a08: 93 75 f5 01  	andi	a1, a0, 31
80201a0c: 13 76 f6 03  	andi	a2, a2, 63
80201a10: 63 77 a3 02  	bgeu	t1, a0, 0x80201a3e <_ZN50_$LT$$RF$mut$u20$W$u20$as$u20$core..fmt..Write$GT$9write_str17h982ff52fc8c25155E.llvm.4938659411644078660+0x74>
80201a14: 83 c7 26 00  	lbu	a5, 2(a3)
80201a18: 1a 06        	slli	a2, a2, 6
80201a1a: 93 f7 f7 03  	andi	a5, a5, 63
80201a1e: 5d 8e        	or	a2, a2, a5
80201a20: 63 64 05 03  	bltu	a0, a6, 0x80201a48 <_ZN50_$LT$$RF$mut$u20$W$u20$as$u20$core..fmt..Write$GT$9write_str17h982ff52fc8c25155E.llvm.4938659411644078660+0x7e>
80201a24: 03 c5 36 00  	lbu	a0, 3(a3)
80201a28: f6 15        	slli	a1, a1, 61
80201a2a: ad 91        	srli	a1, a1, 43
80201a2c: 1a 06        	slli	a2, a2, 6
80201a2e: 13 75 f5 03  	andi	a0, a0, 63
80201a32: 51 8d        	or	a0, a0, a2
80201a34: 4d 8d        	or	a0, a0, a1
80201a36: 63 0e 55 00  	beq	a0, t0, 0x80201a52 <_ZN50_$LT$$RF$mut$u20$W$u20$as$u20$core..fmt..Write$GT$9write_str17h982ff52fc8c25155E.llvm.4938659411644078660+0x88>
80201a3a: 91 06        	addi	a3, a3, 4
80201a3c: 45 bf        	j	0x802019ec <_ZN50_$LT$$RF$mut$u20$W$u20$as$u20$core..fmt..Write$GT$9write_str17h982ff52fc8c25155E.llvm.4938659411644078660+0x22>
80201a3e: 89 06        	addi	a3, a3, 2
80201a40: 13 95 65 00  	slli	a0, a1, 6
80201a44: 51 8d        	or	a0, a0, a2
80201a46: 5d b7        	j	0x802019ec <_ZN50_$LT$$RF$mut$u20$W$u20$as$u20$core..fmt..Write$GT$9write_str17h982ff52fc8c25155E.llvm.4938659411644078660+0x22>
80201a48: 8d 06        	addi	a3, a3, 3
80201a4a: 13 95 c5 00  	slli	a0, a1, 12
80201a4e: 51 8d        	or	a0, a0, a2
80201a50: 71 bf        	j	0x802019ec <_ZN50_$LT$$RF$mut$u20$W$u20$as$u20$core..fmt..Write$GT$9write_str17h982ff52fc8c25155E.llvm.4938659411644078660+0x22>
80201a52: 01 45        	li	a0, 0
80201a54: a2 60        	ld	ra, 8(sp)
80201a56: 02 64        	ld	s0, 0(sp)
80201a58: 41 01        	addi	sp, sp, 16
80201a5a: 82 80        	ret

0000000080201a5c <_ZN2os7console5print17h46e3beb0c93e54b3E>:
; _ZN2os7console5print17h46e3beb0c93e54b3E():
80201a5c: 5d 71        	addi	sp, sp, -80
80201a5e: 86 e4        	sd	ra, 72(sp)
80201a60: a2 e0        	sd	s0, 64(sp)
80201a62: 80 08        	addi	s0, sp, 80
80201a64: 0c 75        	ld	a1, 40(a0)
80201a66: 10 71        	ld	a2, 32(a0)
80201a68: 93 06 04 fc  	addi	a3, s0, -64
80201a6c: 23 3c d4 fa  	sd	a3, -72(s0)
80201a70: 23 34 b4 fe  	sd	a1, -24(s0)
80201a74: 23 30 c4 fe  	sd	a2, -32(s0)
80201a78: 0c 6d        	ld	a1, 24(a0)
80201a7a: 10 69        	ld	a2, 16(a0)
80201a7c: 14 65        	ld	a3, 8(a0)
80201a7e: 08 61        	ld	a0, 0(a0)
80201a80: 23 3c b4 fc  	sd	a1, -40(s0)
80201a84: 23 38 c4 fc  	sd	a2, -48(s0)
80201a88: 23 34 d4 fc  	sd	a3, -56(s0)
80201a8c: 23 30 a4 fc  	sd	a0, -64(s0)

0000000080201a90 <.LBB4_3>:
; .LBB4_3():
80201a90: 97 95 00 00  	auipc	a1, 9
80201a94: 93 85 85 d4  	addi	a1, a1, -696
80201a98: 13 05 84 fb  	addi	a0, s0, -72
80201a9c: 13 06 04 fc  	addi	a2, s0, -64
80201aa0: 97 10 00 00  	auipc	ra, 1
80201aa4: e7 80 00 47  	jalr	1136(ra)
80201aa8: 09 e5        	bnez	a0, 0x80201ab2 <.LBB4_4>
80201aaa: a6 60        	ld	ra, 72(sp)
80201aac: 06 64        	ld	s0, 64(sp)
80201aae: 61 61        	addi	sp, sp, 80
80201ab0: 82 80        	ret

0000000080201ab2 <.LBB4_4>:
; .LBB4_4():
80201ab2: 17 95 00 00  	auipc	a0, 9
80201ab6: 13 05 65 d5  	addi	a0, a0, -682

0000000080201aba <.LBB4_5>:
; .LBB4_5():
80201aba: 97 96 00 00  	auipc	a3, 9
80201abe: 93 86 e6 d7  	addi	a3, a3, -642

0000000080201ac2 <.LBB4_6>:
; .LBB4_6():
80201ac2: 17 97 00 00  	auipc	a4, 9
80201ac6: 13 07 67 da  	addi	a4, a4, -602
80201aca: 93 05 b0 02  	li	a1, 43
80201ace: 13 06 04 fc  	addi	a2, s0, -64
80201ad2: 97 10 00 00  	auipc	ra, 1
80201ad6: e7 80 20 b2  	jalr	-1246(ra)
80201ada: 00 00        	unimp	

0000000080201adc <_ZN2os7syscall7syscall17he6f43f23ff879167E>:
; _ZN2os7syscall7syscall17he6f43f23ff879167E():
80201adc: 59 71        	addi	sp, sp, -112
80201ade: 86 f4        	sd	ra, 104(sp)
80201ae0: a2 f0        	sd	s0, 96(sp)
80201ae2: a6 ec        	sd	s1, 88(sp)
80201ae4: ca e8        	sd	s2, 80(sp)
80201ae6: 80 18        	addi	s0, sp, 112
80201ae8: 13 06 00 04  	li	a2, 64
80201aec: ae 84        	mv	s1, a1
80201aee: 63 1c c5 06  	bne	a0, a2, 0x80201b66 <.LBB0_9+0x38>
80201af2: 23 3c 94 f8  	sd	s1, -104(s0)

0000000080201af6 <.LBB0_7>:
; .LBB0_7():
80201af6: 17 35 00 00  	auipc	a0, 3
80201afa: 13 05 e5 a3  	addi	a0, a0, -1474
80201afe: 23 30 a4 fa  	sd	a0, -96(s0)
80201b02: 13 05 04 fb  	addi	a0, s0, -80
80201b06: 23 34 a4 fa  	sd	a0, -88(s0)

0000000080201b0a <.LBB0_8>:
; .LBB0_8():
80201b0a: 17 95 00 00  	auipc	a0, 9
80201b0e: 13 05 e5 e0  	addi	a0, a0, -498
80201b12: 23 38 a4 fa  	sd	a0, -80(s0)
80201b16: 09 45        	li	a0, 2
80201b18: 23 3c a4 fa  	sd	a0, -72(s0)
80201b1c: 23 30 04 fc  	sd	zero, -64(s0)
80201b20: 13 05 84 f9  	addi	a0, s0, -104
80201b24: 23 38 a4 fc  	sd	a0, -48(s0)
80201b28: 05 45        	li	a0, 1
80201b2a: 23 3c a4 fc  	sd	a0, -40(s0)

0000000080201b2e <.LBB0_9>:
; .LBB0_9():
80201b2e: 97 95 00 00  	auipc	a1, 9
80201b32: 93 85 a5 ca  	addi	a1, a1, -854
80201b36: 13 05 84 fa  	addi	a0, s0, -88
80201b3a: 13 06 04 fb  	addi	a2, s0, -80
80201b3e: 97 10 00 00  	auipc	ra, 1
80201b42: e7 80 20 3d  	jalr	978(ra)
80201b46: 15 e9        	bnez	a0, 0x80201b7a <.LBB0_10>
80201b48: 88 60        	ld	a0, 0(s1)
80201b4a: 8c 64        	ld	a1, 8(s1)
80201b4c: 84 68        	ld	s1, 16(s1)
80201b4e: 26 86        	mv	a2, s1
80201b50: 97 00 00 00  	auipc	ra, 0
80201b54: e7 80 80 0c  	jalr	200(ra)
80201b58: 26 85        	mv	a0, s1
80201b5a: a6 70        	ld	ra, 104(sp)
80201b5c: 06 74        	ld	s0, 96(sp)
80201b5e: e6 64        	ld	s1, 88(sp)
80201b60: 46 69        	ld	s2, 80(sp)
80201b62: 65 61        	addi	sp, sp, 112
80201b64: 82 80        	ret
80201b66: 93 05 d0 05  	li	a1, 93
80201b6a: 63 1d b5 02  	bne	a0, a1, 0x80201ba4 <.LBB0_13>
80201b6e: 88 60        	ld	a0, 0(s1)
80201b70: 97 f0 ff ff  	auipc	ra, 1048575
80201b74: e7 80 00 4d  	jalr	1232(ra)
80201b78: 00 00        	unimp	

0000000080201b7a <.LBB0_10>:
; .LBB0_10():
80201b7a: 17 95 00 00  	auipc	a0, 9
80201b7e: 13 05 e5 c8  	addi	a0, a0, -882

0000000080201b82 <.LBB0_11>:
; .LBB0_11():
80201b82: 97 96 00 00  	auipc	a3, 9
80201b86: 93 86 66 cb  	addi	a3, a3, -842

0000000080201b8a <.LBB0_12>:
; .LBB0_12():
80201b8a: 17 97 00 00  	auipc	a4, 9
80201b8e: 13 07 e7 cd  	addi	a4, a4, -802
80201b92: 93 05 b0 02  	li	a1, 43
80201b96: 13 06 04 fb  	addi	a2, s0, -80
80201b9a: 97 10 00 00  	auipc	ra, 1
80201b9e: e7 80 a0 a5  	jalr	-1446(ra)
80201ba2: 00 00        	unimp	

0000000080201ba4 <.LBB0_13>:
; .LBB0_13():
80201ba4: 17 95 00 00  	auipc	a0, 9
80201ba8: 13 05 45 d0  	addi	a0, a0, -764
80201bac: 23 38 a4 fa  	sd	a0, -80(s0)
80201bb0: 05 49        	li	s2, 1
80201bb2: 23 3c 24 fb  	sd	s2, -72(s0)
80201bb6: 23 30 04 fc  	sd	zero, -64(s0)

0000000080201bba <.LBB0_14>:
; .LBB0_14():
80201bba: 97 94 00 00  	auipc	s1, 9
80201bbe: 93 84 64 cc  	addi	s1, s1, -826
80201bc2: 23 38 94 fc  	sd	s1, -48(s0)
80201bc6: 23 3c 04 fc  	sd	zero, -40(s0)
80201bca: 13 05 04 fb  	addi	a0, s0, -80
80201bce: 97 00 00 00  	auipc	ra, 0
80201bd2: e7 80 e0 e8  	jalr	-370(ra)

0000000080201bd6 <.LBB0_15>:
; .LBB0_15():
80201bd6: 17 95 00 00  	auipc	a0, 9
80201bda: 13 05 a5 cf  	addi	a0, a0, -774
80201bde: 23 38 a4 fa  	sd	a0, -80(s0)
80201be2: 23 3c 24 fb  	sd	s2, -72(s0)
80201be6: 23 30 04 fc  	sd	zero, -64(s0)
80201bea: 23 38 94 fc  	sd	s1, -48(s0)
80201bee: 23 3c 04 fc  	sd	zero, -40(s0)

0000000080201bf2 <.LBB0_16>:
; .LBB0_16():
80201bf2: 97 95 00 00  	auipc	a1, 9
80201bf6: 93 85 65 d0  	addi	a1, a1, -762
80201bfa: 13 05 04 fb  	addi	a0, s0, -80
80201bfe: 97 10 00 00  	auipc	ra, 1
80201c02: e7 80 80 9c  	jalr	-1592(ra)
80201c06: 00 00        	unimp	

0000000080201c08 <_ZN4core3ptr48drop_in_place$LT$core..str..error..Utf8Error$GT$17h8c82a600cf44a440E.llvm.4636682890473527583>:
; _ZN4core3ptr48drop_in_place$LT$core..str..error..Utf8Error$GT$17h8c82a600cf44a440E.llvm.4636682890473527583():
80201c08: 41 11        	addi	sp, sp, -16
80201c0a: 06 e4        	sd	ra, 8(sp)
80201c0c: 22 e0        	sd	s0, 0(sp)
80201c0e: 00 08        	addi	s0, sp, 16
80201c10: a2 60        	ld	ra, 8(sp)
80201c12: 02 64        	ld	s0, 0(sp)
80201c14: 41 01        	addi	sp, sp, 16
80201c16: 82 80        	ret

0000000080201c18 <_ZN2os7syscall2fs9sys_write17hf405bd4d70174baaE>:
; _ZN2os7syscall2fs9sys_write17hf405bd4d70174baaE():
80201c18: 19 71        	addi	sp, sp, -128
80201c1a: 86 fc        	sd	ra, 120(sp)
80201c1c: a2 f8        	sd	s0, 112(sp)
80201c1e: a6 f4        	sd	s1, 104(sp)
80201c20: ca f0        	sd	s2, 96(sp)
80201c22: 00 01        	addi	s0, sp, 128
80201c24: 05 49        	li	s2, 1
80201c26: 63 18 25 09  	bne	a0, s2, 0x80201cb6 <.LBB1_10>
80201c2a: b2 84        	mv	s1, a2
80201c2c: 13 05 04 fb  	addi	a0, s0, -80
80201c30: 13 09 04 fb  	addi	s2, s0, -80
80201c34: 97 20 00 00  	auipc	ra, 2
80201c38: e7 80 c0 d2  	jalr	-724(ra)
80201c3c: 03 35 04 fb  	ld	a0, -80(s0)
80201c40: 61 ed        	bnez	a0, 0x80201d18 <.LBB1_13+0x16>
80201c42: 03 35 84 fb  	ld	a0, -72(s0)
80201c46: 83 35 04 fc  	ld	a1, -64(s0)
80201c4a: 23 34 a4 f8  	sd	a0, -120(s0)
80201c4e: 23 38 b4 f8  	sd	a1, -112(s0)
80201c52: 13 05 84 f8  	addi	a0, s0, -120
80201c56: 23 3c a4 f8  	sd	a0, -104(s0)

0000000080201c5a <.LBB1_7>:
; .LBB1_7():
80201c5a: 17 05 00 00  	auipc	a0, 0
80201c5e: 13 05 e5 1b  	addi	a0, a0, 446
80201c62: 23 30 a4 fa  	sd	a0, -96(s0)
80201c66: 23 34 24 fb  	sd	s2, -88(s0)

0000000080201c6a <.LBB1_8>:
; .LBB1_8():
80201c6a: 17 95 00 00  	auipc	a0, 9
80201c6e: 13 05 e5 db  	addi	a0, a0, -578
80201c72: 23 38 a4 fa  	sd	a0, -80(s0)
80201c76: 09 45        	li	a0, 2
80201c78: 23 3c a4 fa  	sd	a0, -72(s0)
80201c7c: 23 30 04 fc  	sd	zero, -64(s0)
80201c80: 13 05 84 f9  	addi	a0, s0, -104
80201c84: 23 38 a4 fc  	sd	a0, -48(s0)
80201c88: 05 45        	li	a0, 1
80201c8a: 23 3c a4 fc  	sd	a0, -40(s0)

0000000080201c8e <.LBB1_9>:
; .LBB1_9():
80201c8e: 97 95 00 00  	auipc	a1, 9
80201c92: 93 85 a5 b4  	addi	a1, a1, -1206
80201c96: 13 05 84 fa  	addi	a0, s0, -88
80201c9a: 13 06 04 fb  	addi	a2, s0, -80
80201c9e: 97 10 00 00  	auipc	ra, 1
80201ca2: e7 80 20 27  	jalr	626(ra)
80201ca6: 55 e5        	bnez	a0, 0x80201d52 <.LBB1_17>
80201ca8: 26 85        	mv	a0, s1
80201caa: e6 70        	ld	ra, 120(sp)
80201cac: 46 74        	ld	s0, 112(sp)
80201cae: a6 74        	ld	s1, 104(sp)
80201cb0: 06 79        	ld	s2, 96(sp)
80201cb2: 09 61        	addi	sp, sp, 128
80201cb4: 82 80        	ret

0000000080201cb6 <.LBB1_10>:
; .LBB1_10():
80201cb6: 17 95 00 00  	auipc	a0, 9
80201cba: 13 05 a5 ce  	addi	a0, a0, -790
80201cbe: 23 38 a4 fa  	sd	a0, -80(s0)
80201cc2: 23 3c 24 fb  	sd	s2, -72(s0)
80201cc6: 23 30 04 fc  	sd	zero, -64(s0)

0000000080201cca <.LBB1_11>:
; .LBB1_11():
80201cca: 97 94 00 00  	auipc	s1, 9
80201cce: 93 84 e4 c6  	addi	s1, s1, -914
80201cd2: 23 38 94 fc  	sd	s1, -48(s0)
80201cd6: 23 3c 04 fc  	sd	zero, -40(s0)
80201cda: 13 05 04 fb  	addi	a0, s0, -80
80201cde: 97 00 00 00  	auipc	ra, 0
80201ce2: e7 80 e0 d7  	jalr	-642(ra)

0000000080201ce6 <.LBB1_12>:
; .LBB1_12():
80201ce6: 17 95 00 00  	auipc	a0, 9
80201cea: 13 05 25 ce  	addi	a0, a0, -798
80201cee: 23 38 a4 fa  	sd	a0, -80(s0)
80201cf2: 23 3c 24 fb  	sd	s2, -72(s0)
80201cf6: 23 30 04 fc  	sd	zero, -64(s0)
80201cfa: 23 38 94 fc  	sd	s1, -48(s0)
80201cfe: 23 3c 04 fc  	sd	zero, -40(s0)

0000000080201d02 <.LBB1_13>:
; .LBB1_13():
80201d02: 97 95 00 00  	auipc	a1, 9
80201d06: 93 85 e5 ce  	addi	a1, a1, -786
80201d0a: 13 05 04 fb  	addi	a0, s0, -80
80201d0e: 97 10 00 00  	auipc	ra, 1
80201d12: e7 80 80 8b  	jalr	-1864(ra)
80201d16: 00 00        	unimp	
80201d18: 03 35 04 fc  	ld	a0, -64(s0)
80201d1c: 83 35 84 fb  	ld	a1, -72(s0)
80201d20: 23 30 a4 fa  	sd	a0, -96(s0)
80201d24: 23 3c b4 f8  	sd	a1, -104(s0)

0000000080201d28 <.LBB1_14>:
; .LBB1_14():
80201d28: 17 95 00 00  	auipc	a0, 9
80201d2c: 13 05 05 c1  	addi	a0, a0, -1008

0000000080201d30 <.LBB1_15>:
; .LBB1_15():
80201d30: 97 96 00 00  	auipc	a3, 9
80201d34: 93 86 86 c3  	addi	a3, a3, -968

0000000080201d38 <.LBB1_16>:
; .LBB1_16():
80201d38: 17 97 00 00  	auipc	a4, 9
80201d3c: 13 07 07 cd  	addi	a4, a4, -816
80201d40: 93 05 b0 02  	li	a1, 43
80201d44: 13 06 84 f9  	addi	a2, s0, -104
80201d48: 97 10 00 00  	auipc	ra, 1
80201d4c: e7 80 c0 8a  	jalr	-1876(ra)
80201d50: 00 00        	unimp	

0000000080201d52 <.LBB1_17>:
; .LBB1_17():
80201d52: 17 95 00 00  	auipc	a0, 9
80201d56: 13 05 65 ab  	addi	a0, a0, -1354

0000000080201d5a <.LBB1_18>:
; .LBB1_18():
80201d5a: 97 96 00 00  	auipc	a3, 9
80201d5e: 93 86 e6 ad  	addi	a3, a3, -1314

0000000080201d62 <.LBB1_19>:
; .LBB1_19():
80201d62: 17 97 00 00  	auipc	a4, 9
80201d66: 13 07 67 b0  	addi	a4, a4, -1274
80201d6a: 93 05 b0 02  	li	a1, 43
80201d6e: 13 06 04 fb  	addi	a2, s0, -80
80201d72: 97 10 00 00  	auipc	ra, 1
80201d76: e7 80 20 88  	jalr	-1918(ra)
80201d7a: 00 00        	unimp	

0000000080201d7c <_ZN42_$LT$$RF$T$u20$as$u20$core..fmt..Debug$GT$3fmt17h1b7b98305a25d10cE>:
; _ZN42_$LT$$RF$T$u20$as$u20$core..fmt..Debug$GT$3fmt17h1b7b98305a25d10cE():
80201d7c: 01 11        	addi	sp, sp, -32
80201d7e: 06 ec        	sd	ra, 24(sp)
80201d80: 22 e8        	sd	s0, 16(sp)
80201d82: 26 e4        	sd	s1, 8(sp)
80201d84: 4a e0        	sd	s2, 0(sp)
80201d86: 00 10        	addi	s0, sp, 32
80201d88: 03 39 05 00  	ld	s2, 0(a0)
80201d8c: ae 84        	mv	s1, a1
80201d8e: 2e 85        	mv	a0, a1
80201d90: 97 20 00 00  	auipc	ra, 2
80201d94: e7 80 00 84  	jalr	-1984(ra)
80201d98: 01 cd        	beqz	a0, 0x80201db0 <_ZN42_$LT$$RF$T$u20$as$u20$core..fmt..Debug$GT$3fmt17h1b7b98305a25d10cE+0x34>
80201d9a: 4a 85        	mv	a0, s2
80201d9c: a6 85        	mv	a1, s1
80201d9e: e2 60        	ld	ra, 24(sp)
80201da0: 42 64        	ld	s0, 16(sp)
80201da2: a2 64        	ld	s1, 8(sp)
80201da4: 02 69        	ld	s2, 0(sp)
80201da6: 05 61        	addi	sp, sp, 32
80201da8: 17 23 00 00  	auipc	t1, 2
80201dac: 67 00 03 34  	jr	832(t1)
80201db0: 26 85        	mv	a0, s1
80201db2: 97 20 00 00  	auipc	ra, 2
80201db6: e7 80 80 82  	jalr	-2008(ra)
80201dba: 01 cd        	beqz	a0, 0x80201dd2 <_ZN42_$LT$$RF$T$u20$as$u20$core..fmt..Debug$GT$3fmt17h1b7b98305a25d10cE+0x56>
80201dbc: 4a 85        	mv	a0, s2
80201dbe: a6 85        	mv	a1, s1
80201dc0: e2 60        	ld	ra, 24(sp)
80201dc2: 42 64        	ld	s0, 16(sp)
80201dc4: a2 64        	ld	s1, 8(sp)
80201dc6: 02 69        	ld	s2, 0(sp)
80201dc8: 05 61        	addi	sp, sp, 32
80201dca: 17 23 00 00  	auipc	t1, 2
80201dce: 67 00 c3 39  	jr	924(t1)
80201dd2: 4a 85        	mv	a0, s2
80201dd4: a6 85        	mv	a1, s1
80201dd6: e2 60        	ld	ra, 24(sp)
80201dd8: 42 64        	ld	s0, 16(sp)
80201dda: a2 64        	ld	s1, 8(sp)
80201ddc: 02 69        	ld	s2, 0(sp)
80201dde: 05 61        	addi	sp, sp, 32
80201de0: 17 23 00 00  	auipc	t1, 2
80201de4: 67 00 43 75  	jr	1876(t1)

0000000080201de8 <_ZN42_$LT$$RF$T$u20$as$u20$core..fmt..Debug$GT$3fmt17hd44a337104a51c78E>:
; _ZN42_$LT$$RF$T$u20$as$u20$core..fmt..Debug$GT$3fmt17hd44a337104a51c78E():
80201de8: 41 11        	addi	sp, sp, -16
80201dea: 06 e4        	sd	ra, 8(sp)
80201dec: 22 e0        	sd	s0, 0(sp)
80201dee: 00 08        	addi	s0, sp, 16
80201df0: 08 61        	ld	a0, 0(a0)
80201df2: a2 60        	ld	ra, 8(sp)
80201df4: 02 64        	ld	s0, 0(sp)
80201df6: 41 01        	addi	sp, sp, 16
80201df8: 17 f3 ff ff  	auipc	t1, 1048575
80201dfc: 67 00 43 f3  	jr	-204(t1)

0000000080201e00 <_ZN44_$LT$$RF$T$u20$as$u20$core..fmt..Display$GT$3fmt17h05601dcb9317e6d5E>:
; _ZN44_$LT$$RF$T$u20$as$u20$core..fmt..Display$GT$3fmt17h05601dcb9317e6d5E():
80201e00: 41 11        	addi	sp, sp, -16
80201e02: 06 e4        	sd	ra, 8(sp)
80201e04: 22 e0        	sd	s0, 0(sp)
80201e06: 00 08        	addi	s0, sp, 16
80201e08: 08 61        	ld	a0, 0(a0)
80201e0a: a2 60        	ld	ra, 8(sp)
80201e0c: 02 64        	ld	s0, 0(sp)
80201e0e: 41 01        	addi	sp, sp, 16
80201e10: 17 13 00 00  	auipc	t1, 1
80201e14: 67 00 e3 0c  	jr	206(t1)

0000000080201e18 <_ZN44_$LT$$RF$T$u20$as$u20$core..fmt..Display$GT$3fmt17h37b4500d2d938414E>:
; _ZN44_$LT$$RF$T$u20$as$u20$core..fmt..Display$GT$3fmt17h37b4500d2d938414E():
80201e18: 41 11        	addi	sp, sp, -16
80201e1a: 06 e4        	sd	ra, 8(sp)
80201e1c: 22 e0        	sd	s0, 0(sp)
80201e1e: 00 08        	addi	s0, sp, 16
80201e20: 10 61        	ld	a2, 0(a0)
80201e22: 14 65        	ld	a3, 8(a0)
80201e24: 2e 87        	mv	a4, a1
80201e26: 32 85        	mv	a0, a2
80201e28: b6 85        	mv	a1, a3
80201e2a: 3a 86        	mv	a2, a4
80201e2c: a2 60        	ld	ra, 8(sp)
80201e2e: 02 64        	ld	s0, 0(sp)
80201e30: 41 01        	addi	sp, sp, 16
80201e32: 17 23 00 00  	auipc	t1, 2
80201e36: 67 00 03 85  	jr	-1968(t1)

0000000080201e3a <_ZN44_$LT$$RF$T$u20$as$u20$core..fmt..Display$GT$3fmt17h5eecd438b9689c61E>:
; _ZN44_$LT$$RF$T$u20$as$u20$core..fmt..Display$GT$3fmt17h5eecd438b9689c61E():
80201e3a: 41 11        	addi	sp, sp, -16
80201e3c: 06 e4        	sd	ra, 8(sp)
80201e3e: 22 e0        	sd	s0, 0(sp)
80201e40: 00 08        	addi	s0, sp, 16
80201e42: 08 61        	ld	a0, 0(a0)
80201e44: a2 60        	ld	ra, 8(sp)
80201e46: 02 64        	ld	s0, 0(sp)
80201e48: 41 01        	addi	sp, sp, 16
80201e4a: 17 23 00 00  	auipc	t1, 2
80201e4e: 67 00 a3 6e  	jr	1770(t1)

0000000080201e52 <_ZN60_$LT$spin..once..Finish$u20$as$u20$core..ops..drop..Drop$GT$4drop17h7dda4cf32a40d800E>:
; _ZN60_$LT$spin..once..Finish$u20$as$u20$core..ops..drop..Drop$GT$4drop17h7dda4cf32a40d800E():
80201e52: 41 11        	addi	sp, sp, -16
80201e54: 06 e4        	sd	ra, 8(sp)
80201e56: 22 e0        	sd	s0, 0(sp)
80201e58: 00 08        	addi	s0, sp, 16
80201e5a: 83 45 85 00  	lbu	a1, 8(a0)
80201e5e: 91 c5        	beqz	a1, 0x80201e6a <_ZN60_$LT$spin..once..Finish$u20$as$u20$core..ops..drop..Drop$GT$4drop17h7dda4cf32a40d800E+0x18>
80201e60: 08 61        	ld	a0, 0(a0)
80201e62: 0f 00 10 03  	fence	rw, w
80201e66: 8d 45        	li	a1, 3
80201e68: 0c e1        	sd	a1, 0(a0)
80201e6a: a2 60        	ld	ra, 8(sp)
80201e6c: 02 64        	ld	s0, 0(sp)
80201e6e: 41 01        	addi	sp, sp, 16
80201e70: 82 80        	ret

0000000080201e72 <_ZN42_$LT$$RF$T$u20$as$u20$core..fmt..Debug$GT$3fmt17h07facd7242e1c68cE>:
; _ZN42_$LT$$RF$T$u20$as$u20$core..fmt..Debug$GT$3fmt17h07facd7242e1c68cE():
80201e72: 41 11        	addi	sp, sp, -16
80201e74: 06 e4        	sd	ra, 8(sp)
80201e76: 22 e0        	sd	s0, 0(sp)
80201e78: 00 08        	addi	s0, sp, 16
80201e7a: 08 61        	ld	a0, 0(a0)
80201e7c: a2 60        	ld	ra, 8(sp)
80201e7e: 02 64        	ld	s0, 0(sp)
80201e80: 41 01        	addi	sp, sp, 16
80201e82: 17 03 00 00  	auipc	t1, 0
80201e86: 67 00 43 22  	jr	548(t1)

0000000080201e8a <_ZN42_$LT$$RF$T$u20$as$u20$core..fmt..Debug$GT$3fmt17hed454d9f0480229aE>:
; _ZN42_$LT$$RF$T$u20$as$u20$core..fmt..Debug$GT$3fmt17hed454d9f0480229aE():
80201e8a: 41 11        	addi	sp, sp, -16
80201e8c: 06 e4        	sd	ra, 8(sp)
80201e8e: 22 e0        	sd	s0, 0(sp)
80201e90: 00 08        	addi	s0, sp, 16
80201e92: 08 61        	ld	a0, 0(a0)
80201e94: a2 60        	ld	ra, 8(sp)
80201e96: 02 64        	ld	s0, 0(sp)
80201e98: 41 01        	addi	sp, sp, 16
80201e9a: 17 03 00 00  	auipc	t1, 0
80201e9e: 67 00 e3 0f  	jr	254(t1)

0000000080201ea2 <_ZN4core3ptr59drop_in_place$LT$$RF$riscv..register..scause..Exception$GT$17he2e9c41107366f36E>:
; _ZN4core3ptr59drop_in_place$LT$$RF$riscv..register..scause..Exception$GT$17he2e9c41107366f36E():
80201ea2: 41 11        	addi	sp, sp, -16
80201ea4: 06 e4        	sd	ra, 8(sp)
80201ea6: 22 e0        	sd	s0, 0(sp)
80201ea8: 00 08        	addi	s0, sp, 16
80201eaa: a2 60        	ld	ra, 8(sp)
80201eac: 02 64        	ld	s0, 0(sp)
80201eae: 41 01        	addi	sp, sp, 16
80201eb0: 82 80        	ret

0000000080201eb2 <_ZN5riscv8register6scause9Interrupt4from17h8687f6a304202b23E>:
; _ZN5riscv8register6scause9Interrupt4from17h8687f6a304202b23E():
80201eb2: 41 11        	addi	sp, sp, -16
80201eb4: 06 e4        	sd	ra, 8(sp)
80201eb6: 22 e0        	sd	s0, 0(sp)
80201eb8: 00 08        	addi	s0, sp, 16
80201eba: 29 46        	li	a2, 10
80201ebc: a5 45        	li	a1, 9
80201ebe: 63 69 a6 00  	bltu	a2, a0, 0x80201ed0 <.LBB3_3+0xe>

0000000080201ec2 <.LBB3_3>:
; .LBB3_3():
80201ec2: 97 95 00 00  	auipc	a1, 9
80201ec6: 93 85 25 e4  	addi	a1, a1, -446
80201eca: 2e 95        	add	a0, a0, a1
80201ecc: 83 45 05 00  	lbu	a1, 0(a0)
80201ed0: 2e 85        	mv	a0, a1
80201ed2: a2 60        	ld	ra, 8(sp)
80201ed4: 02 64        	ld	s0, 0(sp)
80201ed6: 41 01        	addi	sp, sp, 16
80201ed8: 82 80        	ret

0000000080201eda <_ZN5riscv8register6scause9Exception4from17h19c9cb07b485f516E>:
; _ZN5riscv8register6scause9Exception4from17h19c9cb07b485f516E():
80201eda: 41 11        	addi	sp, sp, -16
80201edc: 06 e4        	sd	ra, 8(sp)
80201ede: 22 e0        	sd	s0, 0(sp)
80201ee0: 00 08        	addi	s0, sp, 16
80201ee2: 5d 46        	li	a2, 23
80201ee4: c1 45        	li	a1, 16
80201ee6: 63 69 a6 00  	bltu	a2, a0, 0x80201ef8 <.LBB4_3+0xe>

0000000080201eea <.LBB4_3>:
; .LBB4_3():
80201eea: 97 95 00 00  	auipc	a1, 9
80201eee: 93 85 55 e2  	addi	a1, a1, -475
80201ef2: 2e 95        	add	a0, a0, a1
80201ef4: 83 45 05 00  	lbu	a1, 0(a0)
80201ef8: 2e 85        	mv	a0, a1
80201efa: a2 60        	ld	ra, 8(sp)
80201efc: 02 64        	ld	s0, 0(sp)
80201efe: 41 01        	addi	sp, sp, 16
80201f00: 82 80        	ret

0000000080201f02 <_ZN5riscv8register6scause6Scause4code17h579b7c1a6d29ad77E>:
; _ZN5riscv8register6scause6Scause4code17h579b7c1a6d29ad77E():
80201f02: 41 11        	addi	sp, sp, -16
80201f04: 06 e4        	sd	ra, 8(sp)
80201f06: 22 e0        	sd	s0, 0(sp)
80201f08: 00 08        	addi	s0, sp, 16
80201f0a: 08 61        	ld	a0, 0(a0)
80201f0c: 06 05        	slli	a0, a0, 1
80201f0e: 05 81        	srli	a0, a0, 1
80201f10: a2 60        	ld	ra, 8(sp)
80201f12: 02 64        	ld	s0, 0(sp)
80201f14: 41 01        	addi	sp, sp, 16
80201f16: 82 80        	ret

0000000080201f18 <_ZN66_$LT$riscv..register..scause..Trap$u20$as$u20$core..fmt..Debug$GT$3fmt17hd504ef9dd4dd2a81E>:
; _ZN66_$LT$riscv..register..scause..Trap$u20$as$u20$core..fmt..Debug$GT$3fmt17hd504ef9dd4dd2a81E():
80201f18: 39 71        	addi	sp, sp, -64
80201f1a: 06 fc        	sd	ra, 56(sp)
80201f1c: 22 f8        	sd	s0, 48(sp)
80201f1e: 26 f4        	sd	s1, 40(sp)
80201f20: 80 00        	addi	s0, sp, 64
80201f22: 03 46 05 00  	lbu	a2, 0(a0)
80201f26: 93 04 15 00  	addi	s1, a0, 1
80201f2a: 1d c2        	beqz	a2, 0x80201f50 <.LBB6_6>

0000000080201f2c <.LBB6_4>:
; .LBB6_4():
80201f2c: 17 96 00 00  	auipc	a2, 9
80201f30: 13 06 46 bf  	addi	a2, a2, -1036
80201f34: 13 05 84 fc  	addi	a0, s0, -56
80201f38: a5 46        	li	a3, 9
80201f3a: 97 10 00 00  	auipc	ra, 1
80201f3e: e7 80 80 6d  	jalr	1752(ra)
80201f42: 23 30 94 fe  	sd	s1, -32(s0)

0000000080201f46 <.LBB6_5>:
; .LBB6_5():
80201f46: 17 96 00 00  	auipc	a2, 9
80201f4a: 13 06 a6 be  	addi	a2, a2, -1046
80201f4e: 15 a0        	j	0x80201f72 <.LBB6_7+0x8>

0000000080201f50 <.LBB6_6>:
; .LBB6_6():
80201f50: 17 96 00 00  	auipc	a2, 9
80201f54: 13 06 06 c0  	addi	a2, a2, -1024
80201f58: 13 05 84 fc  	addi	a0, s0, -56
80201f5c: a5 46        	li	a3, 9
80201f5e: 97 10 00 00  	auipc	ra, 1
80201f62: e7 80 40 6b  	jalr	1716(ra)
80201f66: 23 30 94 fe  	sd	s1, -32(s0)

0000000080201f6a <.LBB6_7>:
; .LBB6_7():
80201f6a: 17 96 00 00  	auipc	a2, 9
80201f6e: 13 06 66 bf  	addi	a2, a2, -1034
80201f72: 13 05 84 fc  	addi	a0, s0, -56
80201f76: 93 05 04 fe  	addi	a1, s0, -32
80201f7a: 97 10 00 00  	auipc	ra, 1
80201f7e: e7 80 60 a9  	jalr	-1386(ra)
80201f82: 13 05 84 fc  	addi	a0, s0, -56
80201f86: 97 10 00 00  	auipc	ra, 1
80201f8a: e7 80 e0 ba  	jalr	-1106(ra)
80201f8e: e2 70        	ld	ra, 56(sp)
80201f90: 42 74        	ld	s0, 48(sp)
80201f92: a2 74        	ld	s1, 40(sp)
80201f94: 21 61        	addi	sp, sp, 64
80201f96: 82 80        	ret

0000000080201f98 <_ZN71_$LT$riscv..register..scause..Interrupt$u20$as$u20$core..fmt..Debug$GT$3fmt17h29d4636b915f434bE>:
; _ZN71_$LT$riscv..register..scause..Interrupt$u20$as$u20$core..fmt..Debug$GT$3fmt17h29d4636b915f434bE():
80201f98: 41 11        	addi	sp, sp, -16
80201f9a: 06 e4        	sd	ra, 8(sp)
80201f9c: 22 e0        	sd	s0, 0(sp)
80201f9e: 00 08        	addi	s0, sp, 16
80201fa0: 03 45 05 00  	lbu	a0, 0(a0)
80201fa4: 0e 05        	slli	a0, a0, 3

0000000080201fa6 <.LBB7_11>:
; .LBB7_11():
80201fa6: 17 96 00 00  	auipc	a2, 9
80201faa: 13 06 26 aa  	addi	a2, a2, -1374
80201fae: 32 95        	add	a0, a0, a2
80201fb0: 10 61        	ld	a2, 0(a0)
80201fb2: 2e 85        	mv	a0, a1
80201fb4: 02 86        	jr	a2

0000000080201fb6 <.LBB7_12>:
; .LBB7_12():
80201fb6: 97 95 00 00  	auipc	a1, 9
80201fba: 93 85 25 a0  	addi	a1, a1, -1534
80201fbe: 21 46        	li	a2, 8
80201fc0: a2 60        	ld	ra, 8(sp)
80201fc2: 02 64        	ld	s0, 0(sp)
80201fc4: 41 01        	addi	sp, sp, 16
80201fc6: 17 13 00 00  	auipc	t1, 1
80201fca: 67 00 23 60  	jr	1538(t1)

0000000080201fce <.LBB7_2>:
; .LBB7_13():
80201fce: 97 95 00 00  	auipc	a1, 9
80201fd2: 93 85 c5 c2  	addi	a1, a1, -980
80201fd6: 55 46        	li	a2, 21
80201fd8: a2 60        	ld	ra, 8(sp)
80201fda: 02 64        	ld	s0, 0(sp)
80201fdc: 41 01        	addi	sp, sp, 16
80201fde: 17 13 00 00  	auipc	t1, 1
80201fe2: 67 00 a3 5e  	jr	1514(t1)

0000000080201fe6 <.LBB7_3>:
; .LBB7_14():
80201fe6: 97 95 00 00  	auipc	a1, 9
80201fea: 93 85 65 c0  	addi	a1, a1, -1018
80201fee: 39 46        	li	a2, 14
80201ff0: a2 60        	ld	ra, 8(sp)
80201ff2: 02 64        	ld	s0, 0(sp)
80201ff4: 41 01        	addi	sp, sp, 16
80201ff6: 17 13 00 00  	auipc	t1, 1
80201ffa: 67 00 23 5d  	jr	1490(t1)

0000000080201ffe <.LBB7_4>:
; .LBB7_15():
80201ffe: 97 95 00 00  	auipc	a1, 9
80202002: 93 85 55 be  	addi	a1, a1, -1051
80202006: 25 46        	li	a2, 9
80202008: a2 60        	ld	ra, 8(sp)
8020200a: 02 64        	ld	s0, 0(sp)
8020200c: 41 01        	addi	sp, sp, 16
8020200e: 17 13 00 00  	auipc	t1, 1
80202012: 67 00 a3 5b  	jr	1466(t1)

0000000080202016 <.LBB7_5>:
; .LBB7_16():
80202016: 97 95 00 00  	auipc	a1, 9
8020201a: 93 85 75 bb  	addi	a1, a1, -1097
8020201e: 59 46        	li	a2, 22
80202020: a2 60        	ld	ra, 8(sp)
80202022: 02 64        	ld	s0, 0(sp)
80202024: 41 01        	addi	sp, sp, 16
80202026: 17 13 00 00  	auipc	t1, 1
8020202a: 67 00 23 5a  	jr	1442(t1)

000000008020202e <.LBB7_6>:
; .LBB7_17():
8020202e: 97 95 00 00  	auipc	a1, 9
80202032: 93 85 05 b9  	addi	a1, a1, -1136
80202036: 3d 46        	li	a2, 15
80202038: a2 60        	ld	ra, 8(sp)
8020203a: 02 64        	ld	s0, 0(sp)
8020203c: 41 01        	addi	sp, sp, 16
8020203e: 17 13 00 00  	auipc	t1, 1
80202042: 67 00 a3 58  	jr	1418(t1)

0000000080202046 <.LBB7_7>:
; .LBB7_18():
80202046: 97 95 00 00  	auipc	a1, 9
8020204a: 93 85 c5 b6  	addi	a1, a1, -1172
8020204e: 31 46        	li	a2, 12
80202050: a2 60        	ld	ra, 8(sp)
80202052: 02 64        	ld	s0, 0(sp)
80202054: 41 01        	addi	sp, sp, 16
80202056: 17 13 00 00  	auipc	t1, 1
8020205a: 67 00 23 57  	jr	1394(t1)

000000008020205e <.LBB7_8>:
; .LBB7_19():
8020205e: 97 95 00 00  	auipc	a1, 9
80202062: 93 85 b5 b3  	addi	a1, a1, -1221
80202066: 65 46        	li	a2, 25
80202068: a2 60        	ld	ra, 8(sp)
8020206a: 02 64        	ld	s0, 0(sp)
8020206c: 41 01        	addi	sp, sp, 16
8020206e: 17 13 00 00  	auipc	t1, 1
80202072: 67 00 a3 55  	jr	1370(t1)

0000000080202076 <.LBB7_9>:
; .LBB7_20():
80202076: 97 95 00 00  	auipc	a1, 9
8020207a: 93 85 15 b1  	addi	a1, a1, -1263
8020207e: 49 46        	li	a2, 18
80202080: a2 60        	ld	ra, 8(sp)
80202082: 02 64        	ld	s0, 0(sp)
80202084: 41 01        	addi	sp, sp, 16
80202086: 17 13 00 00  	auipc	t1, 1
8020208a: 67 00 23 54  	jr	1346(t1)

000000008020208e <.LBB7_21>:
; .LBB7_21():
8020208e: 97 95 00 00  	auipc	a1, 9
80202092: 93 85 25 af  	addi	a1, a1, -1294
80202096: 1d 46        	li	a2, 7
80202098: a2 60        	ld	ra, 8(sp)
8020209a: 02 64        	ld	s0, 0(sp)
8020209c: 41 01        	addi	sp, sp, 16
8020209e: 17 13 00 00  	auipc	t1, 1
802020a2: 67 00 a3 52  	jr	1322(t1)

00000000802020a6 <_ZN71_$LT$riscv..register..scause..Exception$u20$as$u20$core..fmt..Debug$GT$3fmt17hd49d7828b5ace4bbE>:
; _ZN71_$LT$riscv..register..scause..Exception$u20$as$u20$core..fmt..Debug$GT$3fmt17hd49d7828b5ace4bbE():
802020a6: 41 11        	addi	sp, sp, -16
802020a8: 06 e4        	sd	ra, 8(sp)
802020aa: 22 e0        	sd	s0, 0(sp)
802020ac: 00 08        	addi	s0, sp, 16
802020ae: 03 45 05 00  	lbu	a0, 0(a0)
802020b2: 0e 05        	slli	a0, a0, 3

00000000802020b4 <.LBB8_20>:
; .LBB8_20():
802020b4: 17 96 00 00  	auipc	a2, 9
802020b8: 13 06 46 9e  	addi	a2, a2, -1564
802020bc: 32 95        	add	a0, a0, a2
802020be: 10 61        	ld	a2, 0(a0)
802020c0: 2e 85        	mv	a0, a1
802020c2: 02 86        	jr	a2

00000000802020c4 <.LBB8_21>:
; .LBB8_21():
802020c4: 97 95 00 00  	auipc	a1, 9
802020c8: 93 85 b5 c2  	addi	a1, a1, -981
802020cc: 55 46        	li	a2, 21
802020ce: a2 60        	ld	ra, 8(sp)
802020d0: 02 64        	ld	s0, 0(sp)
802020d2: 41 01        	addi	sp, sp, 16
802020d4: 17 13 00 00  	auipc	t1, 1
802020d8: 67 00 43 4f  	jr	1268(t1)

00000000802020dc <.LBB8_22>:
; .LBB8_22():
802020dc: 97 85 00 00  	auipc	a1, 8
802020e0: 93 85 45 1f  	addi	a1, a1, 500
802020e4: 41 46        	li	a2, 16
802020e6: a2 60        	ld	ra, 8(sp)
802020e8: 02 64        	ld	s0, 0(sp)
802020ea: 41 01        	addi	sp, sp, 16
802020ec: 17 13 00 00  	auipc	t1, 1
802020f0: 67 00 c3 4d  	jr	1244(t1)

00000000802020f4 <.LBB8_3>:
; .LBB8_23():
802020f4: 97 95 00 00  	auipc	a1, 9
802020f8: 93 85 95 be  	addi	a1, a1, -1047
802020fc: dd a8        	j	0x802021f2 <.LBB8_35+0x8>

00000000802020fe <.LBB8_4>:
; .LBB8_24():
802020fe: 97 95 00 00  	auipc	a1, 9
80202102: 93 85 55 bd  	addi	a1, a1, -1067
80202106: 2d a8        	j	0x80202140 <.LBB8_7+0x8>

0000000080202108 <.LBB8_5>:
; .LBB8_25():
80202108: 97 95 00 00  	auipc	a1, 9
8020210c: 93 85 25 bc  	addi	a1, a1, -1086
80202110: 25 46        	li	a2, 9
80202112: a2 60        	ld	ra, 8(sp)
80202114: 02 64        	ld	s0, 0(sp)
80202116: 41 01        	addi	sp, sp, 16
80202118: 17 13 00 00  	auipc	t1, 1
8020211c: 67 00 03 4b  	jr	1200(t1)

0000000080202120 <.LBB8_6>:
; .LBB8_26():
80202120: 97 95 00 00  	auipc	a1, 9
80202124: 93 85 b5 b9  	addi	a1, a1, -1125
80202128: 3d 46        	li	a2, 15
8020212a: a2 60        	ld	ra, 8(sp)
8020212c: 02 64        	ld	s0, 0(sp)
8020212e: 41 01        	addi	sp, sp, 16
80202130: 17 13 00 00  	auipc	t1, 1
80202134: 67 00 83 49  	jr	1176(t1)

0000000080202138 <.LBB8_7>:
; .LBB8_27():
80202138: 97 95 00 00  	auipc	a1, 9
8020213c: 93 85 95 b7  	addi	a1, a1, -1159
80202140: 29 46        	li	a2, 10
80202142: a2 60        	ld	ra, 8(sp)
80202144: 02 64        	ld	s0, 0(sp)
80202146: 41 01        	addi	sp, sp, 16
80202148: 17 13 00 00  	auipc	t1, 1
8020214c: 67 00 03 48  	jr	1152(t1)

0000000080202150 <.LBB8_9>:
; .LBB8_28():
80202150: 97 95 00 00  	auipc	a1, 9
80202154: 93 85 65 b5  	addi	a1, a1, -1194
80202158: 2d 46        	li	a2, 11
8020215a: a2 60        	ld	ra, 8(sp)
8020215c: 02 64        	ld	s0, 0(sp)
8020215e: 41 01        	addi	sp, sp, 16
80202160: 17 13 00 00  	auipc	t1, 1
80202164: 67 00 83 46  	jr	1128(t1)

0000000080202168 <.LBB8_29>:
; .LBB8_29():
80202168: 97 95 00 00  	auipc	a1, 9
8020216c: 93 85 65 b2  	addi	a1, a1, -1242
80202170: 61 46        	li	a2, 24
80202172: a2 60        	ld	ra, 8(sp)
80202174: 02 64        	ld	s0, 0(sp)
80202176: 41 01        	addi	sp, sp, 16
80202178: 17 13 00 00  	auipc	t1, 1
8020217c: 67 00 03 45  	jr	1104(t1)

0000000080202180 <.LBB8_30>:
; .LBB8_30():
80202180: 97 95 00 00  	auipc	a1, 9
80202184: 93 85 a5 af  	addi	a1, a1, -1286
80202188: 51 46        	li	a2, 20
8020218a: a2 60        	ld	ra, 8(sp)
8020218c: 02 64        	ld	s0, 0(sp)
8020218e: 41 01        	addi	sp, sp, 16
80202190: 17 13 00 00  	auipc	t1, 1
80202194: 67 00 83 43  	jr	1080(t1)

0000000080202198 <.LBB8_31>:
; .LBB8_31():
80202198: 97 95 00 00  	auipc	a1, 9
8020219c: 93 85 55 ad  	addi	a1, a1, -1323
802021a0: 35 46        	li	a2, 13
802021a2: a2 60        	ld	ra, 8(sp)
802021a4: 02 64        	ld	s0, 0(sp)
802021a6: 41 01        	addi	sp, sp, 16
802021a8: 17 13 00 00  	auipc	t1, 1
802021ac: 67 00 03 42  	jr	1056(t1)

00000000802021b0 <.LBB8_32>:
; .LBB8_32():
802021b0: 97 95 00 00  	auipc	a1, 9
802021b4: 93 85 f5 aa  	addi	a1, a1, -1361
802021b8: 39 46        	li	a2, 14
802021ba: a2 60        	ld	ra, 8(sp)
802021bc: 02 64        	ld	s0, 0(sp)
802021be: 41 01        	addi	sp, sp, 16
802021c0: 17 13 00 00  	auipc	t1, 1
802021c4: 67 00 83 40  	jr	1032(t1)

00000000802021c8 <.LBB8_33>:
; .LBB8_33():
802021c8: 97 95 00 00  	auipc	a1, 9
802021cc: 93 85 e5 a7  	addi	a1, a1, -1410
802021d0: 65 46        	li	a2, 25
802021d2: a2 60        	ld	ra, 8(sp)
802021d4: 02 64        	ld	s0, 0(sp)
802021d6: 41 01        	addi	sp, sp, 16
802021d8: 17 13 00 00  	auipc	t1, 1
802021dc: 67 00 03 3f  	jr	1008(t1)

00000000802021e0 <.LBB8_34>:
; .LBB8_34():
802021e0: 97 95 00 00  	auipc	a1, 9
802021e4: 93 85 45 a5  	addi	a1, a1, -1452
802021e8: 29 a0        	j	0x802021f2 <.LBB8_35+0x8>

00000000802021ea <.LBB8_35>:
; .LBB8_35():
802021ea: 97 95 00 00  	auipc	a1, 9
802021ee: 93 85 85 a3  	addi	a1, a1, -1480
802021f2: 49 46        	li	a2, 18
802021f4: a2 60        	ld	ra, 8(sp)
802021f6: 02 64        	ld	s0, 0(sp)
802021f8: 41 01        	addi	sp, sp, 16
802021fa: 17 13 00 00  	auipc	t1, 1
802021fe: 67 00 e3 3c  	jr	974(t1)

0000000080202202 <.LBB8_36>:
; .LBB8_36():
80202202: 97 95 00 00  	auipc	a1, 9
80202206: 93 85 d5 a0  	addi	a1, a1, -1523
8020220a: 4d 46        	li	a2, 19
8020220c: a2 60        	ld	ra, 8(sp)
8020220e: 02 64        	ld	s0, 0(sp)
80202210: 41 01        	addi	sp, sp, 16
80202212: 17 13 00 00  	auipc	t1, 1
80202216: 67 00 63 3b  	jr	950(t1)

000000008020221a <.LBB8_37>:
; .LBB8_37():
8020221a: 97 95 00 00  	auipc	a1, 9
8020221e: 93 85 65 96  	addi	a1, a1, -1690
80202222: 1d 46        	li	a2, 7
80202224: a2 60        	ld	ra, 8(sp)
80202226: 02 64        	ld	s0, 0(sp)
80202228: 41 01        	addi	sp, sp, 16
8020222a: 17 13 00 00  	auipc	t1, 1
8020222e: 67 00 e3 39  	jr	926(t1)

0000000080202232 <_ZN4core3ops8function6FnOnce9call_once17h1cd81516228a95eeE>:
; _ZN4core3ops8function6FnOnce9call_once17h1cd81516228a95eeE():
; /rustc/ecd44958e0a21110d09862ee080d95a4ca6c52f8/library/core/src/ops/function.rs:248
80202232: 41 11        	addi	sp, sp, -16
80202234: 06 e4        	sd	ra, 8(sp)
80202236: 97 20 00 00  	auipc	ra, 2
8020223a: e7 80 a0 ad  	jalr	-1318(ra)
8020223e: 00 00        	unimp	

0000000080202240 <_ZN4core3ops8function6FnOnce9call_once17h1de31b8d3e964700E>:
; _ZN4core3ops8function6FnOnce9call_once17h1de31b8d3e964700E():
; /rustc/ecd44958e0a21110d09862ee080d95a4ca6c52f8/library/core/src/ops/function.rs:248
80202240: 41 11        	addi	sp, sp, -16
80202242: 06 e4        	sd	ra, 8(sp)
80202244: 97 10 00 00  	auipc	ra, 1
80202248: e7 80 00 60  	jalr	1536(ra)
8020224c: 00 00        	unimp	

000000008020224e <_ZN4core3ops8function6FnOnce9call_once17h5bdea31d62396f0cE>:
; _ZN4core3ops8function6FnOnce9call_once17h5bdea31d62396f0cE():
; /rustc/ecd44958e0a21110d09862ee080d95a4ca6c52f8/library/core/src/ops/function.rs:248
8020224e: 41 11        	addi	sp, sp, -16
80202250: 06 e4        	sd	ra, 8(sp)
80202252: 97 10 00 00  	auipc	ra, 1
80202256: e7 80 60 64  	jalr	1606(ra)
8020225a: 00 00        	unimp	

000000008020225c <_ZN4core3ops8function6FnOnce9call_once17h9b60f5ae124417ddE>:
; _ZN4core3ops8function6FnOnce9call_once17h9b60f5ae124417ddE():
; /rustc/ecd44958e0a21110d09862ee080d95a4ca6c52f8/library/core/src/ptr/mod.rs:1449
8020225c: 08 61        	ld	a0, 0(a0)
; /rustc/ecd44958e0a21110d09862ee080d95a4ca6c52f8/library/core/src/fmt/mod.rs:309
8020225e: 01 a0        	j	0x8020225e <_ZN4core3ops8function6FnOnce9call_once17h9b60f5ae124417ddE+0x2>

0000000080202260 <_ZN4core3ops8function6FnOnce9call_once17hd5bae381c27554a8E>:
; _ZN4core3ops8function6FnOnce9call_once17hd5bae381c27554a8E():
; /rustc/ecd44958e0a21110d09862ee080d95a4ca6c52f8/library/core/src/ops/function.rs:248
80202260: 41 11        	addi	sp, sp, -16
80202262: 06 e4        	sd	ra, 8(sp)
80202264: 97 10 00 00  	auipc	ra, 1
80202268: e7 80 80 68  	jalr	1672(ra)
8020226c: 00 00        	unimp	

000000008020226e <_ZN4core3ptr102drop_in_place$LT$$RF$core..iter..adapters..copied..Copied$LT$core..slice..iter..Iter$LT$u8$GT$$GT$$GT$17h7cd10ccdb0224a22E>:
; _ZN4core3ptr102drop_in_place$LT$$RF$core..iter..adapters..copied..Copied$LT$core..slice..iter..Iter$LT$u8$GT$$GT$$GT$17h7cd10ccdb0224a22E():
; /rustc/ecd44958e0a21110d09862ee080d95a4ca6c52f8/library/core/src/ptr/mod.rs:486
8020226e: 82 80        	ret

0000000080202270 <_ZN4core10intrinsics17const_eval_select17h601d7d65959a3326E>:
; _ZN4core10intrinsics17const_eval_select17h601d7d65959a3326E():
; /rustc/ecd44958e0a21110d09862ee080d95a4ca6c52f8/library/core/src/intrinsics.rs:2358
80202270: 41 11        	addi	sp, sp, -16
; /rustc/ecd44958e0a21110d09862ee080d95a4ca6c52f8/library/core/src/intrinsics.rs:2367
80202272: 06 e4        	sd	ra, 8(sp)
80202274: 97 00 00 00  	auipc	ra, 0
80202278: e7 80 a0 fd  	jalr	-38(ra)
8020227c: 00 00        	unimp	

000000008020227e <_ZN4core10intrinsics17const_eval_select17h845e733c04b72dafE>:
; _ZN4core10intrinsics17const_eval_select17h845e733c04b72dafE():
; /rustc/ecd44958e0a21110d09862ee080d95a4ca6c52f8/library/core/src/intrinsics.rs:2358
8020227e: 41 11        	addi	sp, sp, -16
; /rustc/ecd44958e0a21110d09862ee080d95a4ca6c52f8/library/core/src/intrinsics.rs:2367
80202280: 06 e4        	sd	ra, 8(sp)
80202282: 97 00 00 00  	auipc	ra, 0
80202286: e7 80 e0 fb  	jalr	-66(ra)
8020228a: 00 00        	unimp	

000000008020228c <_ZN4core10intrinsics17const_eval_select17hae917f5bc310e413E>:
; _ZN4core10intrinsics17const_eval_select17hae917f5bc310e413E():
; /rustc/ecd44958e0a21110d09862ee080d95a4ca6c52f8/library/core/src/intrinsics.rs:2358
8020228c: 41 11        	addi	sp, sp, -16
; /rustc/ecd44958e0a21110d09862ee080d95a4ca6c52f8/library/core/src/intrinsics.rs:2367
8020228e: 06 e4        	sd	ra, 8(sp)
80202290: 18 61        	ld	a4, 0(a0)
80202292: 0c 65        	ld	a1, 8(a0)
80202294: 10 69        	ld	a2, 16(a0)
80202296: 14 6d        	ld	a3, 24(a0)
80202298: 3a 85        	mv	a0, a4
8020229a: 97 00 00 00  	auipc	ra, 0
8020229e: e7 80 80 f9  	jalr	-104(ra)
802022a2: 00 00        	unimp	

00000000802022a4 <_ZN4core10intrinsics17const_eval_select17hb1e72957a28db01fE>:
; _ZN4core10intrinsics17const_eval_select17hb1e72957a28db01fE():
; /rustc/ecd44958e0a21110d09862ee080d95a4ca6c52f8/library/core/src/intrinsics.rs:2358
802022a4: 41 11        	addi	sp, sp, -16
; /rustc/ecd44958e0a21110d09862ee080d95a4ca6c52f8/library/core/src/intrinsics.rs:2367
802022a6: 06 e4        	sd	ra, 8(sp)
802022a8: 97 00 00 00  	auipc	ra, 0
802022ac: e7 80 80 fb  	jalr	-72(ra)
802022b0: 00 00        	unimp	

00000000802022b2 <_ZN71_$LT$core..ops..range..Range$LT$Idx$GT$$u20$as$u20$core..fmt..Debug$GT$3fmt17h09599104ed8f76baE>:
; _ZN71_$LT$core..ops..range..Range$LT$Idx$GT$$u20$as$u20$core..fmt..Debug$GT$3fmt17h09599104ed8f76baE():
; /rustc/ecd44958e0a21110d09862ee080d95a4ca6c52f8/library/core/src/ops/range.rs:91
802022b2: 5d 71        	addi	sp, sp, -80
802022b4: 86 e4        	sd	ra, 72(sp)
802022b6: a2 e0        	sd	s0, 64(sp)
802022b8: 26 fc        	sd	s1, 56(sp)
802022ba: 2e 84        	mv	s0, a1
802022bc: aa 84        	mv	s1, a0
; /rustc/ecd44958e0a21110d09862ee080d95a4ca6c52f8/library/core/src/ops/range.rs:92
802022be: 97 20 00 00  	auipc	ra, 2
802022c2: e7 80 60 00  	jalr	6(ra)
802022c6: 1d e5        	bnez	a0, 0x802022f4 <.LBB87_5+0x18>
; /rustc/ecd44958e0a21110d09862ee080d95a4ca6c52f8/library/core/src/fmt/mod.rs:1650
802022c8: 08 70        	ld	a0, 32(s0)
802022ca: 0c 74        	ld	a1, 40(s0)

00000000802022cc <.LBB87_4>:
; .LBB87_4():
; /rustc/ecd44958e0a21110d09862ee080d95a4ca6c52f8/library/core/src/fmt/mod.rs:1650
802022cc: 17 96 00 00  	auipc	a2, 9
802022d0: 13 06 46 c0  	addi	a2, a2, -1020
802022d4: 32 e4        	sd	a2, 8(sp)
802022d6: 05 46        	li	a2, 1
802022d8: 32 e8        	sd	a2, 16(sp)
802022da: 02 ec        	sd	zero, 24(sp)

00000000802022dc <.LBB87_5>:
; .LBB87_5():
; /rustc/ecd44958e0a21110d09862ee080d95a4ca6c52f8/library/core/src/fmt/mod.rs:1650
802022dc: 17 96 00 00  	auipc	a2, 9
802022e0: 13 06 c6 be  	addi	a2, a2, -1044
802022e4: 32 f4        	sd	a2, 40(sp)
802022e6: 02 f8        	sd	zero, 48(sp)
802022e8: 30 00        	addi	a2, sp, 8
802022ea: 97 10 00 00  	auipc	ra, 1
802022ee: e7 80 60 c2  	jalr	-986(ra)
; /rustc/ecd44958e0a21110d09862ee080d95a4ca6c52f8/library/core/src/ops/range.rs:93
802022f2: 19 c5        	beqz	a0, 0x80202300 <.LBB87_5+0x24>
; /rustc/ecd44958e0a21110d09862ee080d95a4ca6c52f8/library/core/src/ops/range.rs:96
802022f4: 05 45        	li	a0, 1
802022f6: a6 60        	ld	ra, 72(sp)
802022f8: 06 64        	ld	s0, 64(sp)
802022fa: e2 74        	ld	s1, 56(sp)
802022fc: 61 61        	addi	sp, sp, 80
802022fe: 82 80        	ret
; /rustc/ecd44958e0a21110d09862ee080d95a4ca6c52f8/library/core/src/ops/range.rs:94
80202300: 13 85 84 00  	addi	a0, s1, 8
80202304: a2 85        	mv	a1, s0
80202306: a6 60        	ld	ra, 72(sp)
80202308: 06 64        	ld	s0, 64(sp)
8020230a: e2 74        	ld	s1, 56(sp)
8020230c: 61 61        	addi	sp, sp, 80
8020230e: 17 23 00 00  	auipc	t1, 2
80202312: 67 00 63 fb  	jr	-74(t1)

0000000080202316 <_ZN36_$LT$T$u20$as$u20$core..any..Any$GT$7type_id17ha5ad7a46df664106E>:
; _ZN36_$LT$T$u20$as$u20$core..any..Any$GT$7type_id17ha5ad7a46df664106E():
; /rustc/ecd44958e0a21110d09862ee080d95a4ca6c52f8/library/core/src/any.rs:133
80202316: 17 b5 00 00  	auipc	a0, 11
8020231a: 13 05 a5 2f  	addi	a0, a0, 762
8020231e: 08 61        	ld	a0, 0(a0)
; /rustc/ecd44958e0a21110d09862ee080d95a4ca6c52f8/library/core/src/any.rs:135
80202320: 82 80        	ret

0000000080202322 <_ZN63_$LT$core..cell..BorrowMutError$u20$as$u20$core..fmt..Debug$GT$3fmt17h2edea5b31975e568E>:
; _ZN63_$LT$core..cell..BorrowMutError$u20$as$u20$core..fmt..Debug$GT$3fmt17h2edea5b31975e568E():
; /rustc/ecd44958e0a21110d09862ee080d95a4ca6c52f8/library/core/src/fmt/mod.rs:1627
80202322: 90 75        	ld	a2, 40(a1)
80202324: 88 71        	ld	a0, 32(a1)
80202326: 1c 6e        	ld	a5, 24(a2)

0000000080202328 <.LBB100_1>:
; .LBB100_1():
; /rustc/ecd44958e0a21110d09862ee080d95a4ca6c52f8/library/core/src/fmt/mod.rs:1627
80202328: 97 95 00 00  	auipc	a1, 9
8020232c: 93 85 85 bb  	addi	a1, a1, -1096
80202330: 39 46        	li	a2, 14
80202332: 82 87        	jr	a5

0000000080202334 <_ZN4core4char7methods22_$LT$impl$u20$char$GT$16escape_debug_ext17h57997b1a07d41389E>:
; _ZN4core4char7methods22_$LT$impl$u20$char$GT$16escape_debug_ext17h57997b1a07d41389E():
; /rustc/ecd44958e0a21110d09862ee080d95a4ca6c52f8/library/core/src/char/methods.rs:421
80202334: 01 11        	addi	sp, sp, -32
80202336: 06 ec        	sd	ra, 24(sp)
80202338: 22 e8        	sd	s0, 16(sp)
8020233a: 26 e4        	sd	s1, 8(sp)
8020233c: 4a e0        	sd	s2, 0(sp)
8020233e: 2e 89        	mv	s2, a1
80202340: 2a 84        	mv	s0, a0
; /rustc/ecd44958e0a21110d09862ee080d95a4ca6c52f8/library/core/src/char/methods.rs:422
80202342: 9b 84 05 00  	sext.w	s1, a1
80202346: 93 05 70 02  	li	a1, 39
8020234a: 09 45        	li	a0, 2
8020234c: 63 e0 95 02  	bltu	a1, s1, 0x8020236c <.LBB107_2+0x6>
80202350: 93 95 34 00  	slli	a1, s1, 3

0000000080202354 <.LBB107_21>:
; .LBB107_21():
80202354: 97 96 00 00  	auipc	a3, 9
80202358: 93 86 46 9d  	addi	a3, a3, -1580
8020235c: b6 95        	add	a1, a1, a3
8020235e: 98 61        	ld	a4, 0(a1)
80202360: 93 06 00 03  	li	a3, 48
80202364: 02 87        	jr	a4

0000000080202366 <.LBB107_2>:
; .LBB107_2():
80202366: 93 06 40 07  	li	a3, 116
8020236a: 5d a8        	j	0x80202420 <.LBB107_27+0x26>
8020236c: 93 06 c0 05  	li	a3, 92
; /rustc/ecd44958e0a21110d09862ee080d95a4ca6c52f8/library/core/src/char/methods.rs:422
80202370: 63 92 d4 02  	bne	s1, a3, 0x80202394 <.LBB107_9>
80202374: 75 a0        	j	0x80202420 <.LBB107_27+0x26>

0000000080202376 <.LBB107_4>:
; .LBB107_4():
80202376: 93 06 e0 06  	li	a3, 110
8020237a: 5d a0        	j	0x80202420 <.LBB107_27+0x26>

000000008020237c <.LBB107_5>:
; .LBB107_5():
8020237c: 93 06 20 07  	li	a3, 114
80202380: 45 a0        	j	0x80202420 <.LBB107_27+0x26>

0000000080202382 <.LBB107_6>:
; .LBB107_6():
80202382: c1 65        	lui	a1, 16
; /rustc/ecd44958e0a21110d09862ee080d95a4ca6c52f8/library/core/src/char/methods.rs:428
80202384: f1 8d        	and	a1, a1, a2
80202386: 99 c5        	beqz	a1, 0x80202394 <.LBB107_9>
80202388: 93 06 20 02  	li	a3, 34
8020238c: 51 a8        	j	0x80202420 <.LBB107_27+0x26>

000000008020238e <.LBB107_8>:
; .LBB107_8():
; /rustc/ecd44958e0a21110d09862ee080d95a4ca6c52f8/library/core/src/char/methods.rs:429
8020238e: 93 75 06 10  	andi	a1, a2, 256
80202392: c9 e5        	bnez	a1, 0x8020241c <.LBB107_27+0x22>

0000000080202394 <.LBB107_9>:
; .LBB107_9():
; /rustc/ecd44958e0a21110d09862ee080d95a4ca6c52f8/library/core/src/char/methods.rs:430
80202394: 13 75 16 00  	andi	a0, a2, 1
80202398: 01 c9        	beqz	a0, 0x802023a8 <.LBB107_9+0x14>
; /rustc/ecd44958e0a21110d09862ee080d95a4ca6c52f8/library/core/src/char/methods.rs:888
8020239a: 4a 85        	mv	a0, s2
8020239c: 97 20 00 00  	auipc	ra, 2
802023a0: e7 80 80 36  	jalr	872(ra)
802023a4: 63 12 05 12  	bnez	a0, 0x802024c8 <.LBB107_27+0xce>
; /rustc/ecd44958e0a21110d09862ee080d95a4ca6c52f8/library/core/src/unicode/printable.rs:42
802023a8: 1b 55 09 01  	srliw	a0, s2, 16
802023ac: 05 ed        	bnez	a0, 0x802023e4 <.LBB107_24+0x26>

00000000802023ae <.LBB107_22>:
; .LBB107_22():
; /rustc/ecd44958e0a21110d09862ee080d95a4ca6c52f8/library/core/src/unicode/printable.rs:43
802023ae: 97 95 00 00  	auipc	a1, 9
802023b2: 93 85 25 1e  	addi	a1, a1, 482

00000000802023b6 <.LBB107_23>:
; .LBB107_23():
; /rustc/ecd44958e0a21110d09862ee080d95a4ca6c52f8/library/core/src/unicode/printable.rs:43
802023b6: 97 96 00 00  	auipc	a3, 9
802023ba: 93 86 a6 22  	addi	a3, a3, 554

00000000802023be <.LBB107_24>:
; .LBB107_24():
; /rustc/ecd44958e0a21110d09862ee080d95a4ca6c52f8/library/core/src/unicode/printable.rs:43
802023be: 97 97 00 00  	auipc	a5, 9
802023c2: 93 87 27 34  	addi	a5, a5, 834
802023c6: 13 06 80 02  	li	a2, 40
802023ca: 13 07 00 12  	li	a4, 288
802023ce: 13 08 f0 12  	li	a6, 303
802023d2: 4a 85        	mv	a0, s2
802023d4: 97 20 00 00  	auipc	ra, 2
802023d8: e7 80 60 c1  	jalr	-1002(ra)
802023dc: 75 c5        	beqz	a0, 0x802024c8 <.LBB107_27+0xce>
802023de: 05 45        	li	a0, 1
802023e0: ca 86        	mv	a3, s2
802023e2: 91 aa        	j	0x80202536 <.LBB107_20>
; /rustc/ecd44958e0a21110d09862ee080d95a4ca6c52f8/library/core/src/unicode/printable.rs:44
802023e4: 1b 55 19 01  	srliw	a0, s2, 17
802023e8: 0d ed        	bnez	a0, 0x80202422 <.LBB107_27+0x28>

00000000802023ea <.LBB107_25>:
; .LBB107_25():
; /rustc/ecd44958e0a21110d09862ee080d95a4ca6c52f8/library/core/src/unicode/printable.rs:45
802023ea: 97 95 00 00  	auipc	a1, 9
802023ee: 93 85 55 44  	addi	a1, a1, 1093

00000000802023f2 <.LBB107_26>:
; .LBB107_26():
; /rustc/ecd44958e0a21110d09862ee080d95a4ca6c52f8/library/core/src/unicode/printable.rs:45
802023f2: 97 96 00 00  	auipc	a3, 9
802023f6: 93 86 16 49  	addi	a3, a3, 1169

00000000802023fa <.LBB107_27>:
; .LBB107_27():
; /rustc/ecd44958e0a21110d09862ee080d95a4ca6c52f8/library/core/src/unicode/printable.rs:45
802023fa: 97 97 00 00  	auipc	a5, 9
802023fe: 93 87 97 54  	addi	a5, a5, 1353
80202402: 13 06 a0 02  	li	a2, 42
80202406: 13 07 00 0c  	li	a4, 192
8020240a: 13 08 60 1b  	li	a6, 438
8020240e: 4a 85        	mv	a0, s2
80202410: 97 20 00 00  	auipc	ra, 2
80202414: e7 80 a0 bd  	jalr	-1062(ra)
80202418: 79 f1        	bnez	a0, 0x802023de <.LBB107_24+0x20>
8020241a: 7d a0        	j	0x802024c8 <.LBB107_27+0xce>
8020241c: 93 06 70 02  	li	a3, 39
80202420: 19 aa        	j	0x80202536 <.LBB107_20>
80202422: 37 05 20 00  	lui	a0, 512
80202426: 01 35        	addiw	a0, a0, -32
; /rustc/ecd44958e0a21110d09862ee080d95a4ca6c52f8/library/core/src/unicode/printable.rs:47
80202428: b3 75 a9 00  	and	a1, s2, a0
8020242c: 37 a6 02 00  	lui	a2, 42
80202430: 1b 06 06 6e  	addiw	a2, a2, 1760
80202434: b1 8d        	xor	a1, a1, a2
80202436: b3 35 b0 00  	snez	a1, a1
8020243a: 37 56 fd ff  	lui	a2, 1048533
8020243e: 1b 06 76 8c  	addiw	a2, a2, -1849
80202442: 3b 06 c9 00  	addw	a2, s2, a2
80202446: 99 46        	li	a3, 6
80202448: 33 b6 c6 00  	sltu	a2, a3, a2
8020244c: f1 8d        	and	a1, a1, a2
8020244e: 13 65 e5 01  	ori	a0, a0, 30
80202452: 33 75 a9 00  	and	a0, s2, a0
80202456: 37 c6 02 00  	lui	a2, 44
8020245a: 1b 06 e6 81  	addiw	a2, a2, -2018
8020245e: 31 8d        	xor	a0, a0, a2
80202460: 33 35 a0 00  	snez	a0, a0
80202464: 37 36 fd ff  	lui	a2, 1048531
80202468: 1b 06 06 15  	addiw	a2, a2, 336
8020246c: 3b 06 c9 00  	addw	a2, s2, a2
80202470: 13 36 26 ff  	sltiu	a2, a2, -14
80202474: 6d 8d        	and	a0, a0, a1
80202476: 71 8d        	and	a0, a0, a2
80202478: b7 15 fd ff  	lui	a1, 1048529
8020247c: 9b 85 05 80  	addiw	a1, a1, -2048
80202480: bb 05 b9 00  	addw	a1, s2, a1
80202484: 7d 76        	lui	a2, 1048575
80202486: 1b 06 16 3e  	addiw	a2, a2, 993
8020248a: b3 b5 c5 00  	sltu	a1, a1, a2
8020248e: 6d 8d        	and	a0, a0, a1
80202490: b7 05 fd ff  	lui	a1, 1048528
80202494: bb 05 b9 00  	addw	a1, s2, a1
80202498: 93 b5 e5 a1  	sltiu	a1, a1, -1506
8020249c: 6d 8d        	and	a0, a0, a1
8020249e: b7 05 f2 ff  	lui	a1, 1048352
802024a2: 9b 85 05 f0  	addiw	a1, a1, -256
802024a6: bb 05 b9 00  	addw	a1, s2, a1
802024aa: 37 16 f5 ff  	lui	a2, 1048401
802024ae: 1b 06 b6 24  	addiw	a2, a2, 587
802024b2: b3 b5 c5 00  	sltu	a1, a1, a2
802024b6: 6d 8d        	and	a0, a0, a1
802024b8: b7 05 0e 00  	lui	a1, 224
802024bc: 9b 85 05 1f  	addiw	a1, a1, 496
802024c0: b3 b5 b4 00  	sltu	a1, s1, a1
802024c4: 6d 8d        	and	a0, a0, a1
; /rustc/ecd44958e0a21110d09862ee080d95a4ca6c52f8/library/core/src/char/methods.rs:433
802024c6: 01 fd        	bnez	a0, 0x802023de <.LBB107_24+0x20>
802024c8: 1b 55 19 00  	srliw	a0, s2, 1
802024cc: 33 65 a9 00  	or	a0, s2, a0
802024d0: 9b 55 25 00  	srliw	a1, a0, 2
802024d4: 4d 8d        	or	a0, a0, a1
802024d6: 9b 55 45 00  	srliw	a1, a0, 4
802024da: 4d 8d        	or	a0, a0, a1
802024dc: 9b 55 85 00  	srliw	a1, a0, 8
802024e0: 4d 8d        	or	a0, a0, a1
802024e2: 9b 55 05 01  	srliw	a1, a0, 16
802024e6: 4d 8d        	or	a0, a0, a1
802024e8: 13 45 f5 ff  	not	a0, a0
802024ec: 79 99        	andi	a0, a0, -2
802024ee: 93 55 15 00  	srli	a1, a0, 1
802024f2: 37 56 55 55  	lui	a2, 349525
802024f6: 1b 06 56 55  	addiw	a2, a2, 1365
802024fa: f1 8d        	and	a1, a1, a2
802024fc: 0d 9d        	subw	a0, a0, a1
802024fe: b7 35 33 33  	lui	a1, 209715
80202502: 9b 85 35 33  	addiw	a1, a1, 819
80202506: 33 76 b5 00  	and	a2, a0, a1
8020250a: 09 81        	srli	a0, a0, 2
8020250c: 6d 8d        	and	a0, a0, a1
8020250e: 32 95        	add	a0, a0, a2
80202510: 93 55 45 00  	srli	a1, a0, 4
80202514: 2e 95        	add	a0, a0, a1
80202516: b7 15 0f 0f  	lui	a1, 61681
8020251a: 9b 85 f5 f0  	addiw	a1, a1, -241
8020251e: 6d 8d        	and	a0, a0, a1
80202520: b7 05 01 01  	lui	a1, 4112
80202524: 9b 85 15 10  	addiw	a1, a1, 257
80202528: 3b 05 b5 02  	mulw	a0, a0, a1
8020252c: 1b 55 a5 01  	srliw	a0, a0, 26
80202530: 93 45 75 00  	xori	a1, a0, 7
80202534: 0d 45        	li	a0, 3

0000000080202536 <.LBB107_20>:
; .LBB107_20():
; /rustc/ecd44958e0a21110d09862ee080d95a4ca6c52f8/library/core/src/char/methods.rs:436
80202536: 08 c0        	sw	a0, 0(s0)
80202538: 54 c0        	sw	a3, 4(s0)
8020253a: 0c e4        	sd	a1, 8(s0)
8020253c: 23 28 24 01  	sw	s2, 16(s0)
80202540: 15 45        	li	a0, 5
80202542: 23 0a a4 00  	sb	a0, 20(s0)
; /rustc/ecd44958e0a21110d09862ee080d95a4ca6c52f8/library/core/src/char/methods.rs:437
80202546: e2 60        	ld	ra, 24(sp)
80202548: 42 64        	ld	s0, 16(sp)
8020254a: a2 64        	ld	s1, 8(sp)
8020254c: 02 69        	ld	s2, 0(sp)
8020254e: 05 61        	addi	sp, sp, 32
80202550: 82 80        	ret

0000000080202552 <_ZN4core5panic10panic_info9PanicInfo7message17h7693f0c6aa71ccd2E>:
; _ZN4core5panic10panic_info9PanicInfo7message17h7693f0c6aa71ccd2E():
; /rustc/ecd44958e0a21110d09862ee080d95a4ca6c52f8/library/core/src/panic/panic_info.rs:98
80202552: 08 69        	ld	a0, 16(a0)
; /rustc/ecd44958e0a21110d09862ee080d95a4ca6c52f8/library/core/src/panic/panic_info.rs:99
80202554: 82 80        	ret

0000000080202556 <_ZN4core5panic10panic_info9PanicInfo8location17h499aa4baab8dea21E>:
; _ZN4core5panic10panic_info9PanicInfo8location17h499aa4baab8dea21E():
; /rustc/ecd44958e0a21110d09862ee080d95a4ca6c52f8/library/core/src/panic/panic_info.rs:130
80202556: 08 6d        	ld	a0, 24(a0)
; /rustc/ecd44958e0a21110d09862ee080d95a4ca6c52f8/library/core/src/panic/panic_info.rs:131
80202558: 82 80        	ret

000000008020255a <_ZN4core9panicking5panic17hf3368c1e32412987E>:
; _ZN4core9panicking5panic17hf3368c1e32412987E():
; /rustc/ecd44958e0a21110d09862ee080d95a4ca6c52f8/library/core/src/panicking.rs:41
8020255a: 5d 71        	addi	sp, sp, -80
; /rustc/ecd44958e0a21110d09862ee080d95a4ca6c52f8/library/core/src/panicking.rs:48
8020255c: 86 e4        	sd	ra, 72(sp)
8020255e: 2a fc        	sd	a0, 56(sp)
80202560: ae e0        	sd	a1, 64(sp)
80202562: 28 18        	addi	a0, sp, 56
; /rustc/ecd44958e0a21110d09862ee080d95a4ca6c52f8/library/core/src/fmt/mod.rs:392
80202564: 2a e4        	sd	a0, 8(sp)
80202566: 05 45        	li	a0, 1
80202568: 2a e8        	sd	a0, 16(sp)
8020256a: 02 ec        	sd	zero, 24(sp)

000000008020256c <.LBB150_1>:
; .LBB150_1():
; /rustc/ecd44958e0a21110d09862ee080d95a4ca6c52f8/library/core/src/fmt/mod.rs:392
8020256c: 17 95 00 00  	auipc	a0, 9
80202570: 13 05 c5 95  	addi	a0, a0, -1700
80202574: 2a f4        	sd	a0, 40(sp)
80202576: 02 f8        	sd	zero, 48(sp)
; /rustc/ecd44958e0a21110d09862ee080d95a4ca6c52f8/library/core/src/panicking.rs:48
80202578: 28 00        	addi	a0, sp, 8
8020257a: b2 85        	mv	a1, a2
8020257c: 97 00 00 00  	auipc	ra, 0
80202580: e7 80 a0 04  	jalr	74(ra)
80202584: 00 00        	unimp	

0000000080202586 <_ZN4core9panicking18panic_bounds_check17ha2c7271ea311aa1aE>:
; _ZN4core9panicking18panic_bounds_check17ha2c7271ea311aa1aE():
; /rustc/ecd44958e0a21110d09862ee080d95a4ca6c52f8/library/core/src/panicking.rs:79
80202586: 59 71        	addi	sp, sp, -112
80202588: 86 f4        	sd	ra, 104(sp)
8020258a: 2a e4        	sd	a0, 8(sp)
8020258c: 2e e8        	sd	a1, 16(sp)
8020258e: 08 08        	addi	a0, sp, 16
; /rustc/ecd44958e0a21110d09862ee080d95a4ca6c52f8/library/core/src/panicking.rs:84
80202590: aa e4        	sd	a0, 72(sp)

0000000080202592 <.LBB153_1>:
; .LBB153_1():
; /rustc/ecd44958e0a21110d09862ee080d95a4ca6c52f8/library/core/src/panicking.rs:84
80202592: 17 25 00 00  	auipc	a0, 2
80202596: 13 05 25 fa  	addi	a0, a0, -94
8020259a: aa e8        	sd	a0, 80(sp)
8020259c: 2c 00        	addi	a1, sp, 8
8020259e: ae ec        	sd	a1, 88(sp)
802025a0: aa f0        	sd	a0, 96(sp)

00000000802025a2 <.LBB153_2>:
; .LBB153_2():
; /rustc/ecd44958e0a21110d09862ee080d95a4ca6c52f8/library/core/src/fmt/mod.rs:392
802025a2: 17 95 00 00  	auipc	a0, 9
802025a6: 13 05 e5 97  	addi	a0, a0, -1666
802025aa: 2a ec        	sd	a0, 24(sp)
802025ac: 09 45        	li	a0, 2
802025ae: 2a f0        	sd	a0, 32(sp)
802025b0: 02 f4        	sd	zero, 40(sp)
802025b2: ac 00        	addi	a1, sp, 72
802025b4: 2e fc        	sd	a1, 56(sp)
802025b6: aa e0        	sd	a0, 64(sp)
; /rustc/ecd44958e0a21110d09862ee080d95a4ca6c52f8/library/core/src/panicking.rs:84
802025b8: 28 08        	addi	a0, sp, 24
802025ba: b2 85        	mv	a1, a2
802025bc: 97 00 00 00  	auipc	ra, 0
802025c0: e7 80 a0 00  	jalr	10(ra)
802025c4: 00 00        	unimp	

00000000802025c6 <_ZN4core9panicking9panic_fmt17h273b6780ae127163E>:
; _ZN4core9panicking9panic_fmt17h273b6780ae127163E():
; /rustc/ecd44958e0a21110d09862ee080d95a4ca6c52f8/library/core/src/panicking.rs:127
802025c6: 79 71        	addi	sp, sp, -48
; /rustc/ecd44958e0a21110d09862ee080d95a4ca6c52f8/library/core/src/panic/panic_info.rs:51
802025c8: 06 f4        	sd	ra, 40(sp)

00000000802025ca <.LBB155_1>:
; .LBB155_1():
; /rustc/ecd44958e0a21110d09862ee080d95a4ca6c52f8/library/core/src/panic/panic_info.rs:51
802025ca: 17 96 00 00  	auipc	a2, 9
802025ce: 13 06 e6 8f  	addi	a2, a2, -1794
802025d2: 32 e0        	sd	a2, 0(sp)

00000000802025d4 <.LBB155_2>:
; .LBB155_2():
; /rustc/ecd44958e0a21110d09862ee080d95a4ca6c52f8/library/core/src/panic/panic_info.rs:51
802025d4: 17 96 00 00  	auipc	a2, 9
802025d8: 13 06 c6 99  	addi	a2, a2, -1636
802025dc: 32 e4        	sd	a2, 8(sp)
802025de: 2a e8        	sd	a0, 16(sp)
802025e0: 2e ec        	sd	a1, 24(sp)
802025e2: 05 45        	li	a0, 1
802025e4: 23 00 a1 02  	sb	a0, 32(sp)
; /rustc/ecd44958e0a21110d09862ee080d95a4ca6c52f8/library/core/src/panicking.rs:142
802025e8: 0a 85        	mv	a0, sp
802025ea: 97 f0 ff ff  	auipc	ra, 1048575
802025ee: e7 80 20 07  	jalr	114(ra)
802025f2: 00 00        	unimp	

00000000802025f4 <_ZN4core6result13unwrap_failed17h41f5b995b0da6fc0E>:
; _ZN4core6result13unwrap_failed17h41f5b995b0da6fc0E():
; /rustc/ecd44958e0a21110d09862ee080d95a4ca6c52f8/library/core/src/result.rs:1784
802025f4: 19 71        	addi	sp, sp, -128
802025f6: 86 fc        	sd	ra, 120(sp)
802025f8: 2a e4        	sd	a0, 8(sp)
802025fa: 2e e8        	sd	a1, 16(sp)
802025fc: 32 ec        	sd	a2, 24(sp)
802025fe: 36 f0        	sd	a3, 32(sp)
80202600: 28 00        	addi	a0, sp, 8
; /rustc/ecd44958e0a21110d09862ee080d95a4ca6c52f8/library/core/src/result.rs:1785
80202602: aa ec        	sd	a0, 88(sp)

0000000080202604 <.LBB160_1>:
; .LBB160_1():
; /rustc/ecd44958e0a21110d09862ee080d95a4ca6c52f8/library/core/src/result.rs:1785
80202604: 17 25 00 00  	auipc	a0, 2
80202608: 13 05 25 03  	addi	a0, a0, 50
8020260c: aa f0        	sd	a0, 96(sp)
8020260e: 28 08        	addi	a0, sp, 24
80202610: aa f4        	sd	a0, 104(sp)

0000000080202612 <.LBB160_2>:
; .LBB160_2():
; /rustc/ecd44958e0a21110d09862ee080d95a4ca6c52f8/library/core/src/result.rs:1785
80202612: 17 25 00 00  	auipc	a0, 2
80202616: 13 05 c5 01  	addi	a0, a0, 28
8020261a: aa f8        	sd	a0, 112(sp)

000000008020261c <.LBB160_3>:
; .LBB160_3():
; /rustc/ecd44958e0a21110d09862ee080d95a4ca6c52f8/library/core/src/fmt/mod.rs:392
8020261c: 17 95 00 00  	auipc	a0, 9
80202620: 13 05 c5 99  	addi	a0, a0, -1636
80202624: 2a f4        	sd	a0, 40(sp)
80202626: 09 45        	li	a0, 2
80202628: 2a f8        	sd	a0, 48(sp)
8020262a: 02 fc        	sd	zero, 56(sp)
8020262c: ac 08        	addi	a1, sp, 88
8020262e: ae e4        	sd	a1, 72(sp)
80202630: aa e8        	sd	a0, 80(sp)
; /rustc/ecd44958e0a21110d09862ee080d95a4ca6c52f8/library/core/src/result.rs:1785
80202632: 28 10        	addi	a0, sp, 40
80202634: ba 85        	mv	a1, a4
80202636: 97 00 00 00  	auipc	ra, 0
8020263a: e7 80 00 f9  	jalr	-112(ra)
8020263e: 00 00        	unimp	

0000000080202640 <_ZN68_$LT$core..fmt..builders..PadAdapter$u20$as$u20$core..fmt..Write$GT$9write_str17h0c4743aad1f0d901E>:
; _ZN68_$LT$core..fmt..builders..PadAdapter$u20$as$u20$core..fmt..Write$GT$9write_str17h0c4743aad1f0d901E():
; /rustc/ecd44958e0a21110d09862ee080d95a4ca6c52f8/library/core/src/fmt/builders.rs:31
80202640: 59 71        	addi	sp, sp, -112
; /rustc/ecd44958e0a21110d09862ee080d95a4ca6c52f8/library/core/src/fmt/builders.rs:32
80202642: 86 f4        	sd	ra, 104(sp)
80202644: a2 f0        	sd	s0, 96(sp)
80202646: a6 ec        	sd	s1, 88(sp)
80202648: ca e8        	sd	s2, 80(sp)
8020264a: ce e4        	sd	s3, 72(sp)
8020264c: d2 e0        	sd	s4, 64(sp)
8020264e: 56 fc        	sd	s5, 56(sp)
80202650: 5a f8        	sd	s6, 48(sp)
80202652: 5e f4        	sd	s7, 40(sp)
80202654: 62 f0        	sd	s8, 32(sp)
80202656: 66 ec        	sd	s9, 24(sp)
80202658: 6a e8        	sd	s10, 16(sp)
8020265a: 6e e4        	sd	s11, 8(sp)
8020265c: 63 02 06 1a  	beqz	a2, 0x80202800 <.LBB162_47+0x142>
80202660: 32 8a        	mv	s4, a2
80202662: ae 89        	mv	s3, a1

0000000080202664 <.LBB162_44>:
; .LBB162_44():
80202664: 97 b5 00 00  	auipc	a1, 11
80202668: 93 85 c5 fb  	addi	a1, a1, -68
8020266c: 83 ba 05 00  	ld	s5, 0(a1)

0000000080202670 <.LBB162_45>:
; .LBB162_45():
80202670: 97 b5 00 00  	auipc	a1, 11
80202674: 93 85 85 fb  	addi	a1, a1, -72
80202678: 03 bb 05 00  	ld	s6, 0(a1)

000000008020267c <.LBB162_46>:
; .LBB162_46():
8020267c: 97 b5 00 00  	auipc	a1, 11
80202680: 93 85 45 fb  	addi	a1, a1, -76
80202684: 03 bd 05 00  	ld	s10, 0(a1)
80202688: 83 3b 05 01  	ld	s7, 16(a0)
8020268c: 03 39 05 00  	ld	s2, 0(a0)
80202690: 03 3c 85 00  	ld	s8, 8(a0)
80202694: c1 4c        	li	s9, 16
80202696: a9 4d        	li	s11, 10
80202698: 31 a8        	j	0x802026b4 <.LBB162_46+0x38>
8020269a: 33 85 89 00  	add	a0, s3, s0
; /rustc/ecd44958e0a21110d09862ee080d95a4ca6c52f8/library/core/src/str/mod.rs:230
8020269e: 03 05 05 00  	lb	a0, 0(a0)
; /rustc/ecd44958e0a21110d09862ee080d95a4ca6c52f8/library/core/src/str/traits.rs:330
802026a2: 93 05 f0 fb  	li	a1, -65
802026a6: 63 d4 a5 14  	bge	a1, a0, 0x802027ee <.LBB162_47+0x130>
; /rustc/ecd44958e0a21110d09862ee080d95a4ca6c52f8/library/core/src/str/traits.rs:354
802026aa: 33 0a 8a 40  	sub	s4, s4, s0
802026ae: a2 99        	add	s3, s3, s0
; /rustc/ecd44958e0a21110d09862ee080d95a4ca6c52f8/library/core/src/fmt/builders.rs:32
802026b0: 63 08 0a 14  	beqz	s4, 0x80202800 <.LBB162_47+0x142>
; /rustc/ecd44958e0a21110d09862ee080d95a4ca6c52f8/library/core/src/fmt/builders.rs:33
802026b4: 03 c5 0b 00  	lbu	a0, 0(s7)
802026b8: 01 cd        	beqz	a0, 0x802026d0 <.LBB162_47+0x12>
; /rustc/ecd44958e0a21110d09862ee080d95a4ca6c52f8/library/core/src/fmt/builders.rs:34
802026ba: 83 36 8c 01  	ld	a3, 24(s8)

00000000802026be <.LBB162_47>:
; .LBB162_47():
; /rustc/ecd44958e0a21110d09862ee080d95a4ca6c52f8/library/core/src/fmt/builders.rs:34
802026be: 97 85 00 00  	auipc	a1, 8
802026c2: 93 85 a5 ba  	addi	a1, a1, -1110
802026c6: 11 46        	li	a2, 4
802026c8: 4a 85        	mv	a0, s2
802026ca: 82 96        	jalr	a3
802026cc: 63 1c 05 12  	bnez	a0, 0x80202804 <.LBB162_47+0x146>
802026d0: 81 46        	li	a3, 0
802026d2: d2 85        	mv	a1, s4
802026d4: 29 a0        	j	0x802026de <.LBB162_47+0x20>
; /rustc/ecd44958e0a21110d09862ee080d95a4ca6c52f8/library/core/src/slice/index.rs:259
802026d6: b3 05 da 40  	sub	a1, s4, a3
; /rustc/ecd44958e0a21110d09862ee080d95a4ca6c52f8/library/core/src/str/pattern.rs:413
802026da: 63 69 da 0e  	bltu	s4, a3, 0x802027cc <.LBB162_47+0x10e>
; /rustc/ecd44958e0a21110d09862ee080d95a4ca6c52f8/library/core/src/slice/index.rs:259
802026de: 33 86 d9 00  	add	a2, s3, a3
; /rustc/ecd44958e0a21110d09862ee080d95a4ca6c52f8/library/core/src/slice/memchr.rs:40
802026e2: 63 fe 95 01  	bgeu	a1, s9, 0x802026fe <.LBB162_47+0x40>
; /rustc/ecd44958e0a21110d09862ee080d95a4ca6c52f8/library/core/src/slice/iter/macros.rs:146
802026e6: fd c1        	beqz	a1, 0x802027cc <.LBB162_47+0x10e>
802026e8: 01 47        	li	a4, 0
; /rustc/ecd44958e0a21110d09862ee080d95a4ca6c52f8/library/core/src/ptr/mut_ptr.rs:467
802026ea: 33 05 e6 00  	add	a0, a2, a4
; /rustc/ecd44958e0a21110d09862ee080d95a4ca6c52f8/library/core/src/slice/iter/macros.rs:295
802026ee: 03 45 05 00  	lbu	a0, 0(a0)
802026f2: 63 0f b5 09  	beq	a0, s11, 0x80202790 <.LBB162_47+0xd2>
; /rustc/ecd44958e0a21110d09862ee080d95a4ca6c52f8/library/core/src/slice/iter/macros.rs:301
802026f6: 05 07        	addi	a4, a4, 1
802026f8: e3 99 e5 fe  	bne	a1, a4, 0x802026ea <.LBB162_47+0x2c>
802026fc: c1 a8        	j	0x802027cc <.LBB162_47+0x10e>
; /rustc/ecd44958e0a21110d09862ee080d95a4ca6c52f8/library/core/src/ptr/mod.rs:1607
802026fe: 13 05 76 00  	addi	a0, a2, 7
80202702: 61 99        	andi	a0, a0, -8
80202704: 33 07 c5 40  	sub	a4, a0, a2
; /rustc/ecd44958e0a21110d09862ee080d95a4ca6c52f8/library/core/src/slice/memchr.rs:60
80202708: 05 c7        	beqz	a4, 0x80202730 <.LBB162_47+0x72>
8020270a: 2e 85        	mv	a0, a1
8020270c: 63 e3 e5 00  	bltu	a1, a4, 0x80202712 <.LBB162_47+0x54>
80202710: 3a 85        	mv	a0, a4
80202712: 01 47        	li	a4, 0
; /rustc/ecd44958e0a21110d09862ee080d95a4ca6c52f8/library/core/src/ptr/mut_ptr.rs:467
80202714: b3 07 e6 00  	add	a5, a2, a4
; /rustc/ecd44958e0a21110d09862ee080d95a4ca6c52f8/library/core/src/slice/iter/macros.rs:295
80202718: 83 c7 07 00  	lbu	a5, 0(a5)
8020271c: 63 8a b7 07  	beq	a5, s11, 0x80202790 <.LBB162_47+0xd2>
; /rustc/ecd44958e0a21110d09862ee080d95a4ca6c52f8/library/core/src/slice/iter/macros.rs:301
80202720: 05 07        	addi	a4, a4, 1
; /rustc/ecd44958e0a21110d09862ee080d95a4ca6c52f8/library/core/src/slice/iter/macros.rs:146
80202722: e3 19 e5 fe  	bne	a0, a4, 0x80202714 <.LBB162_47+0x56>
80202726: 13 88 05 ff  	addi	a6, a1, -16
; /rustc/ecd44958e0a21110d09862ee080d95a4ca6c52f8/library/core/src/slice/memchr.rs:69
8020272a: 63 76 a8 00  	bgeu	a6, a0, 0x80202736 <.LBB162_47+0x78>
8020272e: 3d a8        	j	0x8020276c <.LBB162_47+0xae>
80202730: 01 45        	li	a0, 0
80202732: 13 88 05 ff  	addi	a6, a1, -16
; /rustc/ecd44958e0a21110d09862ee080d95a4ca6c52f8/library/core/src/slice/memchr.rs:73
80202736: b3 07 a6 00  	add	a5, a2, a0
8020273a: 80 63        	ld	s0, 0(a5)
; /rustc/ecd44958e0a21110d09862ee080d95a4ca6c52f8/library/core/src/slice/memchr.rs:74
8020273c: 9c 67        	ld	a5, 8(a5)
; /rustc/ecd44958e0a21110d09862ee080d95a4ca6c52f8/library/core/src/slice/memchr.rs:73
8020273e: 93 44 f4 ff  	not	s1, s0
; /rustc/ecd44958e0a21110d09862ee080d95a4ca6c52f8/library/core/src/slice/memchr.rs:74
80202742: 13 c7 f7 ff  	not	a4, a5
; /rustc/ecd44958e0a21110d09862ee080d95a4ca6c52f8/library/core/src/slice/memchr.rs:77
80202746: 33 44 a4 01  	xor	s0, s0, s10
; /rustc/ecd44958e0a21110d09862ee080d95a4ca6c52f8/library/core/src/num/uint_macros.rs:1226
8020274a: 56 94        	add	s0, s0, s5
; /rustc/ecd44958e0a21110d09862ee080d95a4ca6c52f8/library/core/src/slice/memchr.rs:20
8020274c: b3 f4 64 01  	and	s1, s1, s6
80202750: e1 8c        	and	s1, s1, s0
; /rustc/ecd44958e0a21110d09862ee080d95a4ca6c52f8/library/core/src/slice/memchr.rs:78
80202752: b3 c7 a7 01  	xor	a5, a5, s10
; /rustc/ecd44958e0a21110d09862ee080d95a4ca6c52f8/library/core/src/num/uint_macros.rs:1226
80202756: d6 97        	add	a5, a5, s5
; /rustc/ecd44958e0a21110d09862ee080d95a4ca6c52f8/library/core/src/slice/memchr.rs:20
80202758: 33 77 67 01  	and	a4, a4, s6
8020275c: 7d 8f        	and	a4, a4, a5
8020275e: 45 8f        	or	a4, a4, s1
80202760: 01 e7        	bnez	a4, 0x80202768 <.LBB162_47+0xaa>
; /rustc/ecd44958e0a21110d09862ee080d95a4ca6c52f8/library/core/src/slice/memchr.rs:83
80202762: 41 05        	addi	a0, a0, 16
80202764: e3 79 a8 fc  	bgeu	a6, a0, 0x80202736 <.LBB162_47+0x78>
80202768: 63 e6 a5 0c  	bltu	a1, a0, 0x80202834 <.LBB162_47+0x176>
; /rustc/ecd44958e0a21110d09862ee080d95a4ca6c52f8/library/core/src/slice/iter/macros.rs:146
8020276c: 63 00 b5 06  	beq	a0, a1, 0x802027cc <.LBB162_47+0x10e>
80202770: 01 47        	li	a4, 0
; /rustc/ecd44958e0a21110d09862ee080d95a4ca6c52f8/library/core/src/slice/iter/macros.rs:295
80202772: 2a 96        	add	a2, a2, a0
; /rustc/ecd44958e0a21110d09862ee080d95a4ca6c52f8/library/core/src/slice/iter/macros.rs:146
80202774: b3 05 b5 40  	sub	a1, a0, a1
; /rustc/ecd44958e0a21110d09862ee080d95a4ca6c52f8/library/core/src/ptr/mut_ptr.rs:467
80202778: b3 07 e6 00  	add	a5, a2, a4
; /rustc/ecd44958e0a21110d09862ee080d95a4ca6c52f8/library/core/src/slice/iter/macros.rs:295
8020277c: 83 c7 07 00  	lbu	a5, 0(a5)
80202780: 63 87 b7 01  	beq	a5, s11, 0x8020278e <.LBB162_47+0xd0>
; /rustc/ecd44958e0a21110d09862ee080d95a4ca6c52f8/library/core/src/slice/iter/macros.rs:301
80202784: 05 07        	addi	a4, a4, 1
; /rustc/ecd44958e0a21110d09862ee080d95a4ca6c52f8/library/core/src/slice/iter/macros.rs:146
80202786: b3 87 e5 00  	add	a5, a1, a4
8020278a: fd f7        	bnez	a5, 0x80202778 <.LBB162_47+0xba>
8020278c: 81 a0        	j	0x802027cc <.LBB162_47+0x10e>
; /rustc/ecd44958e0a21110d09862ee080d95a4ca6c52f8/library/core/src/option.rs:908
8020278e: 2a 97        	add	a4, a4, a0
; /rustc/ecd44958e0a21110d09862ee080d95a4ca6c52f8/library/core/src/str/pattern.rs:435
80202790: 33 05 d7 00  	add	a0, a4, a3
80202794: 93 06 15 00  	addi	a3, a0, 1
80202798: b3 b5 a6 00  	sltu	a1, a3, a0
8020279c: 33 36 da 00  	sltu	a2, s4, a3
; /rustc/ecd44958e0a21110d09862ee080d95a4ca6c52f8/library/core/src/str/pattern.rs:436
802027a0: d1 8d        	or	a1, a1, a2
802027a2: 95 f9        	bnez	a1, 0x802026d6 <.LBB162_47+0x18>
; /rustc/ecd44958e0a21110d09862ee080d95a4ca6c52f8/library/core/src/slice/index.rs:259
802027a4: 4e 95        	add	a0, a0, s3
; /rustc/ecd44958e0a21110d09862ee080d95a4ca6c52f8/library/core/src/slice/cmp.rs:91
802027a6: 03 45 05 00  	lbu	a0, 0(a0)
; /rustc/ecd44958e0a21110d09862ee080d95a4ca6c52f8/library/core/src/str/pattern.rs:439
802027aa: e3 16 b5 f3  	bne	a0, s11, 0x802026d6 <.LBB162_47+0x18>
; /rustc/ecd44958e0a21110d09862ee080d95a4ca6c52f8/library/core/src/fmt/builders.rs:39
802027ae: 05 45        	li	a0, 1
802027b0: 23 80 ab 00  	sb	a0, 0(s7)
; /rustc/ecd44958e0a21110d09862ee080d95a4ca6c52f8/library/core/src/str/mod.rs:218
802027b4: 63 ff 46 01  	bgeu	a3, s4, 0x802027d2 <.LBB162_47+0x114>
802027b8: 33 85 d9 00  	add	a0, s3, a3
; /rustc/ecd44958e0a21110d09862ee080d95a4ca6c52f8/library/core/src/str/mod.rs:230
802027bc: 03 05 05 00  	lb	a0, 0(a0)
802027c0: 36 84        	mv	s0, a3
; /rustc/ecd44958e0a21110d09862ee080d95a4ca6c52f8/library/core/src/str/traits.rs:259
802027c2: 93 05 f0 fb  	li	a1, -65
802027c6: 63 c9 a5 00  	blt	a1, a0, 0x802027d8 <.LBB162_47+0x11a>
802027ca: a9 a8        	j	0x80202824 <.LBB162_47+0x166>
; /rustc/ecd44958e0a21110d09862ee080d95a4ca6c52f8/library/core/src/fmt/builders.rs:43
802027cc: 23 80 0b 00  	sb	zero, 0(s7)
802027d0: d2 86        	mv	a3, s4
802027d2: 52 84        	mv	s0, s4
802027d4: 63 18 da 04  	bne	s4, a3, 0x80202824 <.LBB162_47+0x166>
; /rustc/ecd44958e0a21110d09862ee080d95a4ca6c52f8/library/core/src/fmt/builders.rs:47
802027d8: 83 36 8c 01  	ld	a3, 24(s8)
802027dc: 4a 85        	mv	a0, s2
802027de: ce 85        	mv	a1, s3
802027e0: 22 86        	mv	a2, s0
802027e2: 82 96        	jalr	a3
802027e4: 05 e1        	bnez	a0, 0x80202804 <.LBB162_47+0x146>
; /rustc/ecd44958e0a21110d09862ee080d95a4ca6c52f8/library/core/src/str/mod.rs:218
802027e6: e3 6a 44 eb  	bltu	s0, s4, 0x8020269a <.LBB162_46+0x1e>
; /rustc/ecd44958e0a21110d09862ee080d95a4ca6c52f8/library/core/src/str/traits.rs:330
802027ea: e3 00 8a ec  	beq	s4, s0, 0x802026aa <.LBB162_46+0x2e>
; /rustc/ecd44958e0a21110d09862ee080d95a4ca6c52f8/library/core/src/str/traits.rs:370
802027ee: 4e 85        	mv	a0, s3
802027f0: d2 85        	mv	a1, s4
802027f2: 22 86        	mv	a2, s0
802027f4: d2 86        	mv	a3, s4
802027f6: 97 10 00 00  	auipc	ra, 1
802027fa: e7 80 20 50  	jalr	1282(ra)
802027fe: 00 00        	unimp	
80202800: 01 45        	li	a0, 0
80202802: 11 a0        	j	0x80202806 <.LBB162_47+0x148>
80202804: 05 45        	li	a0, 1
; /rustc/ecd44958e0a21110d09862ee080d95a4ca6c52f8/library/core/src/fmt/builders.rs:52
80202806: a6 70        	ld	ra, 104(sp)
80202808: 06 74        	ld	s0, 96(sp)
8020280a: e6 64        	ld	s1, 88(sp)
8020280c: 46 69        	ld	s2, 80(sp)
8020280e: a6 69        	ld	s3, 72(sp)
80202810: 06 6a        	ld	s4, 64(sp)
80202812: e2 7a        	ld	s5, 56(sp)
80202814: 42 7b        	ld	s6, 48(sp)
80202816: a2 7b        	ld	s7, 40(sp)
80202818: 02 7c        	ld	s8, 32(sp)
8020281a: e2 6c        	ld	s9, 24(sp)
8020281c: 42 6d        	ld	s10, 16(sp)
8020281e: a2 6d        	ld	s11, 8(sp)
80202820: 65 61        	addi	sp, sp, 112
80202822: 82 80        	ret
; /rustc/ecd44958e0a21110d09862ee080d95a4ca6c52f8/library/core/src/str/traits.rs:294
80202824: 4e 85        	mv	a0, s3
80202826: d2 85        	mv	a1, s4
80202828: 01 46        	li	a2, 0
8020282a: 97 10 00 00  	auipc	ra, 1
8020282e: e7 80 e0 4c  	jalr	1230(ra)
80202832: 00 00        	unimp	
; /rustc/ecd44958e0a21110d09862ee080d95a4ca6c52f8/library/core/src/slice/index.rs:390
80202834: 97 10 00 00  	auipc	ra, 1
80202838: e7 80 20 00  	jalr	2(ra)
8020283c: 00 00        	unimp	

000000008020283e <_ZN4core3fmt8builders11DebugStruct5field17ha3d87d8059ad6c78E>:
; _ZN4core3fmt8builders11DebugStruct5field17ha3d87d8059ad6c78E():
; /rustc/ecd44958e0a21110d09862ee080d95a4ca6c52f8/library/core/src/fmt/builders.rs:133
8020283e: 71 71        	addi	sp, sp, -176
80202840: 06 f5        	sd	ra, 168(sp)
80202842: 22 f1        	sd	s0, 160(sp)
80202844: 26 ed        	sd	s1, 152(sp)
80202846: 4a e9        	sd	s2, 144(sp)
80202848: 4e e5        	sd	s3, 136(sp)
8020284a: 52 e1        	sd	s4, 128(sp)
8020284c: d6 fc        	sd	s5, 120(sp)
8020284e: da f8        	sd	s6, 112(sp)
80202850: de f4        	sd	s7, 104(sp)
80202852: 2a 84        	mv	s0, a0
; /rustc/ecd44958e0a21110d09862ee080d95a4ca6c52f8/library/core/src/fmt/builders.rs:134
80202854: 03 45 85 00  	lbu	a0, 8(a0)
80202858: 85 4b        	li	s7, 1
8020285a: 85 44        	li	s1, 1
; /rustc/ecd44958e0a21110d09862ee080d95a4ca6c52f8/library/core/src/result.rs:1331
8020285c: 0d c1        	beqz	a0, 0x8020287e <_ZN4core3fmt8builders11DebugStruct5field17ha3d87d8059ad6c78E+0x40>
; /rustc/ecd44958e0a21110d09862ee080d95a4ca6c52f8/library/core/src/fmt/builders.rs:134
8020285e: 23 04 94 00  	sb	s1, 8(s0)
; /rustc/ecd44958e0a21110d09862ee080d95a4ca6c52f8/library/core/src/fmt/builders.rs:155
80202862: a3 04 74 01  	sb	s7, 9(s0)
; /rustc/ecd44958e0a21110d09862ee080d95a4ca6c52f8/library/core/src/fmt/builders.rs:157
80202866: 22 85        	mv	a0, s0
80202868: aa 70        	ld	ra, 168(sp)
8020286a: 0a 74        	ld	s0, 160(sp)
8020286c: ea 64        	ld	s1, 152(sp)
8020286e: 4a 69        	ld	s2, 144(sp)
80202870: aa 69        	ld	s3, 136(sp)
80202872: 0a 6a        	ld	s4, 128(sp)
80202874: e6 7a        	ld	s5, 120(sp)
80202876: 46 7b        	ld	s6, 112(sp)
80202878: a6 7b        	ld	s7, 104(sp)
8020287a: 4d 61        	addi	sp, sp, 176
8020287c: 82 80        	ret
8020287e: ba 89        	mv	s3, a4
80202880: 36 89        	mv	s2, a3
80202882: 32 8a        	mv	s4, a2
80202884: ae 8a        	mv	s5, a1
; /rustc/ecd44958e0a21110d09862ee080d95a4ca6c52f8/library/core/src/fmt/builders.rs:135
80202886: 03 3b 04 00  	ld	s6, 0(s0)
8020288a: 03 65 0b 03  	lwu	a0, 48(s6)
8020288e: 83 45 94 00  	lbu	a1, 9(s0)
; /rustc/ecd44958e0a21110d09862ee080d95a4ca6c52f8/library/core/src/fmt/mod.rs:1886
80202892: 13 76 45 00  	andi	a2, a0, 4
; /rustc/ecd44958e0a21110d09862ee080d95a4ca6c52f8/library/core/src/fmt/builders.rs:135
80202896: 09 ea        	bnez	a2, 0x802028a8 <.LBB163_18+0xa>
80202898: 13 b6 15 00  	seqz	a2, a1
; /rustc/ecd44958e0a21110d09862ee080d95a4ca6c52f8/library/core/src/fmt/builders.rs:147
8020289c: e1 c1        	beqz	a1, 0x8020295c <.LBB163_23>

000000008020289e <.LBB163_18>:
; .LBB163_18():
8020289e: 97 85 00 00  	auipc	a1, 8
802028a2: 93 85 f5 76  	addi	a1, a1, 1903
802028a6: 7d a8        	j	0x80202964 <.LBB163_23+0x8>
; /rustc/ecd44958e0a21110d09862ee080d95a4ca6c52f8/library/core/src/fmt/builders.rs:136
802028a8: 85 e1        	bnez	a1, 0x802028c8 <.LBB163_19+0x14>
; /rustc/ecd44958e0a21110d09862ee080d95a4ca6c52f8/library/core/src/fmt/mod.rs:1627
802028aa: 83 35 8b 02  	ld	a1, 40(s6)
802028ae: 03 35 0b 02  	ld	a0, 32(s6)
802028b2: 94 6d        	ld	a3, 24(a1)

00000000802028b4 <.LBB163_19>:
; .LBB163_19():
; /rustc/ecd44958e0a21110d09862ee080d95a4ca6c52f8/library/core/src/fmt/mod.rs:1627
802028b4: 97 85 00 00  	auipc	a1, 8
802028b8: 93 85 45 75  	addi	a1, a1, 1876
802028bc: 0d 46        	li	a2, 3
802028be: 82 96        	jalr	a3
802028c0: 85 44        	li	s1, 1
; /rustc/ecd44958e0a21110d09862ee080d95a4ca6c52f8/library/core/src/fmt/builders.rs:137
802028c2: 51 fd        	bnez	a0, 0x8020285e <_ZN4core3fmt8builders11DebugStruct5field17ha3d87d8059ad6c78E+0x20>
; /rustc/ecd44958e0a21110d09862ee080d95a4ca6c52f8/library/core/src/fmt/mod.rs:1292
802028c4: 03 25 0b 03  	lw	a0, 48(s6)
802028c8: 85 44        	li	s1, 1
; /rustc/ecd44958e0a21110d09862ee080d95a4ca6c52f8/library/core/src/fmt/builders.rs:140
802028ca: a3 03 91 02  	sb	s1, 39(sp)
; /rustc/ecd44958e0a21110d09862ee080d95a4ca6c52f8/library/core/src/fmt/mod.rs:1289
802028ce: 83 35 0b 02  	ld	a1, 32(s6)
802028d2: 03 36 8b 02  	ld	a2, 40(s6)
; /rustc/ecd44958e0a21110d09862ee080d95a4ca6c52f8/library/core/src/option.rs:1421
802028d6: 2e e4        	sd	a1, 8(sp)
802028d8: 32 e8        	sd	a2, 16(sp)
802028da: 93 05 71 02  	addi	a1, sp, 39
802028de: 2e ec        	sd	a1, 24(sp)
; /rustc/ecd44958e0a21110d09862ee080d95a4ca6c52f8/library/core/src/fmt/mod.rs:1293
802028e0: 83 25 4b 03  	lw	a1, 52(s6)
; /rustc/ecd44958e0a21110d09862ee080d95a4ca6c52f8/library/core/src/fmt/mod.rs:1294
802028e4: 03 06 8b 03  	lb	a2, 56(s6)
; /rustc/ecd44958e0a21110d09862ee080d95a4ca6c52f8/library/core/src/fmt/mod.rs:1295
802028e8: 83 36 0b 00  	ld	a3, 0(s6)
802028ec: 03 37 8b 00  	ld	a4, 8(s6)
; /rustc/ecd44958e0a21110d09862ee080d95a4ca6c52f8/library/core/src/fmt/mod.rs:1296
802028f0: 83 37 0b 01  	ld	a5, 16(s6)
802028f4: 03 38 8b 01  	ld	a6, 24(s6)
; /rustc/ecd44958e0a21110d09862ee080d95a4ca6c52f8/library/core/src/fmt/mod.rs:1287
802028f8: aa cc        	sw	a0, 88(sp)
802028fa: ae ce        	sw	a1, 92(sp)
802028fc: 23 00 c1 06  	sb	a2, 96(sp)
80202900: 36 f4        	sd	a3, 40(sp)
80202902: 3a f8        	sd	a4, 48(sp)
80202904: 3e fc        	sd	a5, 56(sp)
80202906: c2 e0        	sd	a6, 64(sp)
80202908: 28 00        	addi	a0, sp, 8
8020290a: aa e4        	sd	a0, 72(sp)

000000008020290c <.LBB163_20>:
; .LBB163_20():
; /rustc/ecd44958e0a21110d09862ee080d95a4ca6c52f8/library/core/src/fmt/mod.rs:1287
8020290c: 17 85 00 00  	auipc	a0, 8
80202910: 13 05 c5 6c  	addi	a0, a0, 1740
80202914: aa e8        	sd	a0, 80(sp)
; /rustc/ecd44958e0a21110d09862ee080d95a4ca6c52f8/library/core/src/fmt/mod.rs:1627
80202916: 28 00        	addi	a0, sp, 8
80202918: d6 85        	mv	a1, s5
8020291a: 52 86        	mv	a2, s4
8020291c: 97 00 00 00  	auipc	ra, 0
80202920: e7 80 40 d2  	jalr	-732(ra)
; /rustc/ecd44958e0a21110d09862ee080d95a4ca6c52f8/library/core/src/fmt/builders.rs:142
80202924: 0d fd        	bnez	a0, 0x8020285e <_ZN4core3fmt8builders11DebugStruct5field17ha3d87d8059ad6c78E+0x20>

0000000080202926 <.LBB163_21>:
; .LBB163_21():
; /rustc/ecd44958e0a21110d09862ee080d95a4ca6c52f8/library/core/src/fmt/mod.rs:1627
80202926: 97 85 00 00  	auipc	a1, 8
8020292a: 93 85 b5 68  	addi	a1, a1, 1675
8020292e: 28 00        	addi	a0, sp, 8
80202930: 09 46        	li	a2, 2
80202932: 97 00 00 00  	auipc	ra, 0
80202936: e7 80 e0 d0  	jalr	-754(ra)
8020293a: 15 f1        	bnez	a0, 0x8020285e <_ZN4core3fmt8builders11DebugStruct5field17ha3d87d8059ad6c78E+0x20>
; /rustc/ecd44958e0a21110d09862ee080d95a4ca6c52f8/library/core/src/fmt/builders.rs:144
8020293c: 03 b6 89 01  	ld	a2, 24(s3)
80202940: 2c 10        	addi	a1, sp, 40
80202942: 4a 85        	mv	a0, s2
80202944: 02 96        	jalr	a2
80202946: 01 fd        	bnez	a0, 0x8020285e <_ZN4core3fmt8builders11DebugStruct5field17ha3d87d8059ad6c78E+0x20>
; /rustc/ecd44958e0a21110d09862ee080d95a4ca6c52f8/library/core/src/fmt/mod.rs:1627
80202948: c6 65        	ld	a1, 80(sp)
8020294a: 26 65        	ld	a0, 72(sp)
8020294c: 94 6d        	ld	a3, 24(a1)

000000008020294e <.LBB163_22>:
; .LBB163_22():
; /rustc/ecd44958e0a21110d09862ee080d95a4ca6c52f8/library/core/src/fmt/mod.rs:1627
8020294e: 97 85 00 00  	auipc	a1, 8
80202952: 93 85 d5 6b  	addi	a1, a1, 1725
80202956: 09 46        	li	a2, 2
80202958: 82 96        	jalr	a3
8020295a: b1 a8        	j	0x802029b6 <.LBB163_24+0x1c>

000000008020295c <.LBB163_23>:
; .LBB163_23():
8020295c: 97 85 00 00  	auipc	a1, 8
80202960: 93 85 35 6b  	addi	a1, a1, 1715
; /rustc/ecd44958e0a21110d09862ee080d95a4ca6c52f8/library/core/src/fmt/mod.rs:1627
80202964: 83 36 8b 02  	ld	a3, 40(s6)
80202968: 03 35 0b 02  	ld	a0, 32(s6)
8020296c: 94 6e        	ld	a3, 24(a3)
; /rustc/ecd44958e0a21110d09862ee080d95a4ca6c52f8/library/core/src/fmt/builders.rs:147
8020296e: 13 66 26 00  	ori	a2, a2, 2
; /rustc/ecd44958e0a21110d09862ee080d95a4ca6c52f8/library/core/src/fmt/mod.rs:1627
80202972: 82 96        	jalr	a3
80202974: 85 44        	li	s1, 1
; /rustc/ecd44958e0a21110d09862ee080d95a4ca6c52f8/library/core/src/fmt/builders.rs:148
80202976: e3 14 05 ee  	bnez	a0, 0x8020285e <_ZN4core3fmt8builders11DebugStruct5field17ha3d87d8059ad6c78E+0x20>
; /rustc/ecd44958e0a21110d09862ee080d95a4ca6c52f8/library/core/src/fmt/mod.rs:1627
8020297a: 83 35 8b 02  	ld	a1, 40(s6)
8020297e: 03 35 0b 02  	ld	a0, 32(s6)
80202982: 94 6d        	ld	a3, 24(a1)
80202984: d6 85        	mv	a1, s5
80202986: 52 86        	mv	a2, s4
80202988: 82 96        	jalr	a3
8020298a: 85 44        	li	s1, 1
8020298c: e3 19 05 ec  	bnez	a0, 0x8020285e <_ZN4core3fmt8builders11DebugStruct5field17ha3d87d8059ad6c78E+0x20>
80202990: 83 35 8b 02  	ld	a1, 40(s6)
80202994: 03 35 0b 02  	ld	a0, 32(s6)
80202998: 94 6d        	ld	a3, 24(a1)

000000008020299a <.LBB163_24>:
; .LBB163_24():
; /rustc/ecd44958e0a21110d09862ee080d95a4ca6c52f8/library/core/src/fmt/mod.rs:1627
8020299a: 97 85 00 00  	auipc	a1, 8
8020299e: 93 85 75 61  	addi	a1, a1, 1559
802029a2: 09 46        	li	a2, 2
802029a4: 82 96        	jalr	a3
802029a6: 85 44        	li	s1, 1
802029a8: e3 1b 05 ea  	bnez	a0, 0x8020285e <_ZN4core3fmt8builders11DebugStruct5field17ha3d87d8059ad6c78E+0x20>
; /rustc/ecd44958e0a21110d09862ee080d95a4ca6c52f8/library/core/src/fmt/builders.rs:151
802029ac: 03 b6 89 01  	ld	a2, 24(s3)
802029b0: 4a 85        	mv	a0, s2
802029b2: da 85        	mv	a1, s6
802029b4: 02 96        	jalr	a2
802029b6: aa 84        	mv	s1, a0
802029b8: 5d b5        	j	0x8020285e <_ZN4core3fmt8builders11DebugStruct5field17ha3d87d8059ad6c78E+0x20>

00000000802029ba <_ZN4core3fmt8builders11DebugStruct6finish17h1a62a03e3774ea60E>:
; _ZN4core3fmt8builders11DebugStruct6finish17h1a62a03e3774ea60E():
; /rustc/ecd44958e0a21110d09862ee080d95a4ca6c52f8/library/core/src/fmt/builders.rs:233
802029ba: 41 11        	addi	sp, sp, -16
802029bc: 06 e4        	sd	ra, 8(sp)
802029be: 22 e0        	sd	s0, 0(sp)
802029c0: 2a 84        	mv	s0, a0
; /rustc/ecd44958e0a21110d09862ee080d95a4ca6c52f8/library/core/src/fmt/builders.rs:234
802029c2: 03 45 95 00  	lbu	a0, 9(a0)
802029c6: 83 45 84 00  	lbu	a1, 8(s0)
; /rustc/ecd44958e0a21110d09862ee080d95a4ca6c52f8/library/core/src/fmt/builders.rs:234
802029ca: 0d cd        	beqz	a0, 0x80202a04 <.LBB165_9+0x12>
802029cc: 05 45        	li	a0, 1
; /rustc/ecd44958e0a21110d09862ee080d95a4ca6c52f8/library/core/src/result.rs:1331
802029ce: 85 e9        	bnez	a1, 0x802029fe <.LBB165_9+0xc>
; /rustc/ecd44958e0a21110d09862ee080d95a4ca6c52f8/library/core/src/fmt/builders.rs:236
802029d0: 08 60        	ld	a0, 0(s0)
; /rustc/ecd44958e0a21110d09862ee080d95a4ca6c52f8/library/core/src/fmt/mod.rs:1886
802029d2: 83 45 05 03  	lbu	a1, 48(a0)
802029d6: 91 89        	andi	a1, a1, 4
; /rustc/ecd44958e0a21110d09862ee080d95a4ca6c52f8/library/core/src/fmt/builders.rs:236
802029d8: 91 e9        	bnez	a1, 0x802029ec <.LBB165_8+0xc>
; /rustc/ecd44958e0a21110d09862ee080d95a4ca6c52f8/library/core/src/fmt/mod.rs:1627
802029da: 0c 75        	ld	a1, 40(a0)
802029dc: 08 71        	ld	a0, 32(a0)
802029de: 94 6d        	ld	a3, 24(a1)

00000000802029e0 <.LBB165_8>:
; .LBB165_8():
; /rustc/ecd44958e0a21110d09862ee080d95a4ca6c52f8/library/core/src/fmt/mod.rs:1627
802029e0: 97 85 00 00  	auipc	a1, 8
802029e4: 93 85 35 63  	addi	a1, a1, 1587
802029e8: 09 46        	li	a2, 2
802029ea: 09 a8        	j	0x802029fc <.LBB165_9+0xa>
802029ec: 0c 75        	ld	a1, 40(a0)
802029ee: 08 71        	ld	a0, 32(a0)
802029f0: 94 6d        	ld	a3, 24(a1)

00000000802029f2 <.LBB165_9>:
; .LBB165_9():
; /rustc/ecd44958e0a21110d09862ee080d95a4ca6c52f8/library/core/src/fmt/mod.rs:1627
802029f2: 97 85 00 00  	auipc	a1, 8
802029f6: 93 85 05 62  	addi	a1, a1, 1568
802029fa: 05 46        	li	a2, 1
802029fc: 82 96        	jalr	a3
; /rustc/ecd44958e0a21110d09862ee080d95a4ca6c52f8/library/core/src/fmt/builders.rs:235
802029fe: 23 04 a4 00  	sb	a0, 8(s0)
80202a02: aa 85        	mv	a1, a0
; /rustc/ecd44958e0a21110d09862ee080d95a4ca6c52f8/library/core/src/fmt/builders.rs:239
80202a04: 33 35 b0 00  	snez	a0, a1
; /rustc/ecd44958e0a21110d09862ee080d95a4ca6c52f8/library/core/src/fmt/builders.rs:240
80202a08: a2 60        	ld	ra, 8(sp)
80202a0a: 02 64        	ld	s0, 0(sp)
80202a0c: 41 01        	addi	sp, sp, 16
80202a0e: 82 80        	ret

0000000080202a10 <_ZN4core3fmt8builders10DebugTuple5field17hbd7aac264a33df53E>:
; _ZN4core3fmt8builders10DebugTuple5field17hbd7aac264a33df53E():
; /rustc/ecd44958e0a21110d09862ee080d95a4ca6c52f8/library/core/src/fmt/builders.rs:318
80202a10: 35 71        	addi	sp, sp, -160
80202a12: 06 ed        	sd	ra, 152(sp)
80202a14: 22 e9        	sd	s0, 144(sp)
80202a16: 26 e5        	sd	s1, 136(sp)
80202a18: 4a e1        	sd	s2, 128(sp)
80202a1a: ce fc        	sd	s3, 120(sp)
80202a1c: d2 f8        	sd	s4, 112(sp)
80202a1e: d6 f4        	sd	s5, 104(sp)
80202a20: 2a 84        	mv	s0, a0
; /rustc/ecd44958e0a21110d09862ee080d95a4ca6c52f8/library/core/src/fmt/builders.rs:319
80202a22: 03 45 05 01  	lbu	a0, 16(a0)
; /rustc/ecd44958e0a21110d09862ee080d95a4ca6c52f8/library/core/src/result.rs:1331
80202a26: 09 c5        	beqz	a0, 0x80202a30 <_ZN4core3fmt8builders10DebugTuple5field17hbd7aac264a33df53E+0x20>
; /rustc/ecd44958e0a21110d09862ee080d95a4ca6c52f8/library/core/src/fmt/builders.rs:336
80202a28: 83 3a 84 00  	ld	s5, 8(s0)
80202a2c: 85 44        	li	s1, 1
80202a2e: e5 a0        	j	0x80202b16 <.LBB166_20+0xe>
80202a30: b2 89        	mv	s3, a2
80202a32: 2e 89        	mv	s2, a1
; /rustc/ecd44958e0a21110d09862ee080d95a4ca6c52f8/library/core/src/fmt/builders.rs:320
80202a34: 03 3a 04 00  	ld	s4, 0(s0)
80202a38: 03 65 0a 03  	lwu	a0, 48(s4)
80202a3c: 83 3a 84 00  	ld	s5, 8(s0)
; /rustc/ecd44958e0a21110d09862ee080d95a4ca6c52f8/library/core/src/fmt/mod.rs:1886
80202a40: 93 75 45 00  	andi	a1, a0, 4
; /rustc/ecd44958e0a21110d09862ee080d95a4ca6c52f8/library/core/src/fmt/builders.rs:320
80202a44: 91 e9        	bnez	a1, 0x80202a58 <.LBB166_16+0xa>
80202a46: 13 b6 1a 00  	seqz	a2, s5
; /rustc/ecd44958e0a21110d09862ee080d95a4ca6c52f8/library/core/src/fmt/builders.rs:330
80202a4a: 63 88 0a 02  	beqz	s5, 0x80202a7a <.LBB166_18>

0000000080202a4e <.LBB166_16>:
; .LBB166_16():
80202a4e: 97 85 00 00  	auipc	a1, 8
80202a52: 93 85 f5 5b  	addi	a1, a1, 1471
80202a56: 35 a0        	j	0x80202a82 <.LBB166_18+0x8>
; /rustc/ecd44958e0a21110d09862ee080d95a4ca6c52f8/library/core/src/fmt/builders.rs:321
80202a58: 63 98 0a 04  	bnez	s5, 0x80202aa8 <.LBB166_18+0x2e>
; /rustc/ecd44958e0a21110d09862ee080d95a4ca6c52f8/library/core/src/fmt/mod.rs:1627
80202a5c: 83 35 8a 02  	ld	a1, 40(s4)
80202a60: 03 35 0a 02  	ld	a0, 32(s4)
80202a64: 94 6d        	ld	a3, 24(a1)

0000000080202a66 <.LBB166_17>:
; .LBB166_17():
; /rustc/ecd44958e0a21110d09862ee080d95a4ca6c52f8/library/core/src/fmt/mod.rs:1627
80202a66: 97 85 00 00  	auipc	a1, 8
80202a6a: 93 85 f5 5a  	addi	a1, a1, 1455
80202a6e: 09 46        	li	a2, 2
80202a70: 82 96        	jalr	a3
; /rustc/ecd44958e0a21110d09862ee080d95a4ca6c52f8/library/core/src/fmt/builders.rs:322
80202a72: 0d c9        	beqz	a0, 0x80202aa4 <.LBB166_18+0x2a>
80202a74: 81 4a        	li	s5, 0
80202a76: 85 44        	li	s1, 1
80202a78: 79 a8        	j	0x80202b16 <.LBB166_20+0xe>

0000000080202a7a <.LBB166_18>:
; .LBB166_18():
80202a7a: 97 85 00 00  	auipc	a1, 8
80202a7e: 93 85 d5 59  	addi	a1, a1, 1437
; /rustc/ecd44958e0a21110d09862ee080d95a4ca6c52f8/library/core/src/fmt/mod.rs:1627
80202a82: 83 36 8a 02  	ld	a3, 40(s4)
80202a86: 03 35 0a 02  	ld	a0, 32(s4)
80202a8a: 94 6e        	ld	a3, 24(a3)
80202a8c: 09 47        	li	a4, 2
; /rustc/ecd44958e0a21110d09862ee080d95a4ca6c52f8/library/core/src/fmt/builders.rs:330
80202a8e: 33 06 c7 40  	sub	a2, a4, a2
; /rustc/ecd44958e0a21110d09862ee080d95a4ca6c52f8/library/core/src/fmt/mod.rs:1627
80202a92: 82 96        	jalr	a3
80202a94: 85 44        	li	s1, 1
; /rustc/ecd44958e0a21110d09862ee080d95a4ca6c52f8/library/core/src/fmt/builders.rs:331
80202a96: 41 e1        	bnez	a0, 0x80202b16 <.LBB166_20+0xe>
; /rustc/ecd44958e0a21110d09862ee080d95a4ca6c52f8/library/core/src/fmt/builders.rs:332
80202a98: 03 b6 89 01  	ld	a2, 24(s3)
80202a9c: 4a 85        	mv	a0, s2
80202a9e: d2 85        	mv	a1, s4
80202aa0: 02 96        	jalr	a2
80202aa2: 8d a8        	j	0x80202b14 <.LBB166_20+0xc>
; /rustc/ecd44958e0a21110d09862ee080d95a4ca6c52f8/library/core/src/fmt/mod.rs:1292
80202aa4: 03 25 0a 03  	lw	a0, 48(s4)
80202aa8: 85 44        	li	s1, 1
; /rustc/ecd44958e0a21110d09862ee080d95a4ca6c52f8/library/core/src/fmt/builders.rs:325
80202aaa: a3 03 91 02  	sb	s1, 39(sp)
; /rustc/ecd44958e0a21110d09862ee080d95a4ca6c52f8/library/core/src/fmt/mod.rs:1289
80202aae: 83 35 0a 02  	ld	a1, 32(s4)
80202ab2: 03 36 8a 02  	ld	a2, 40(s4)
; /rustc/ecd44958e0a21110d09862ee080d95a4ca6c52f8/library/core/src/option.rs:1421
80202ab6: 2e e4        	sd	a1, 8(sp)
80202ab8: 32 e8        	sd	a2, 16(sp)
80202aba: 93 05 71 02  	addi	a1, sp, 39
80202abe: 2e ec        	sd	a1, 24(sp)
; /rustc/ecd44958e0a21110d09862ee080d95a4ca6c52f8/library/core/src/fmt/mod.rs:1293
80202ac0: 83 25 4a 03  	lw	a1, 52(s4)
; /rustc/ecd44958e0a21110d09862ee080d95a4ca6c52f8/library/core/src/fmt/mod.rs:1294
80202ac4: 03 06 8a 03  	lb	a2, 56(s4)
; /rustc/ecd44958e0a21110d09862ee080d95a4ca6c52f8/library/core/src/fmt/mod.rs:1295
80202ac8: 83 36 0a 00  	ld	a3, 0(s4)
80202acc: 03 37 8a 00  	ld	a4, 8(s4)
; /rustc/ecd44958e0a21110d09862ee080d95a4ca6c52f8/library/core/src/fmt/mod.rs:1296
80202ad0: 83 37 0a 01  	ld	a5, 16(s4)
80202ad4: 03 38 8a 01  	ld	a6, 24(s4)
; /rustc/ecd44958e0a21110d09862ee080d95a4ca6c52f8/library/core/src/fmt/mod.rs:1287
80202ad8: aa cc        	sw	a0, 88(sp)
80202ada: ae ce        	sw	a1, 92(sp)
80202adc: 23 00 c1 06  	sb	a2, 96(sp)
80202ae0: 36 f4        	sd	a3, 40(sp)
80202ae2: 3a f8        	sd	a4, 48(sp)
80202ae4: 3e fc        	sd	a5, 56(sp)
80202ae6: c2 e0        	sd	a6, 64(sp)
80202ae8: 28 00        	addi	a0, sp, 8
; /rustc/ecd44958e0a21110d09862ee080d95a4ca6c52f8/library/core/src/fmt/builders.rs:327
80202aea: 03 b6 89 01  	ld	a2, 24(s3)
; /rustc/ecd44958e0a21110d09862ee080d95a4ca6c52f8/library/core/src/fmt/mod.rs:1287
80202aee: aa e4        	sd	a0, 72(sp)

0000000080202af0 <.LBB166_19>:
; .LBB166_19():
; /rustc/ecd44958e0a21110d09862ee080d95a4ca6c52f8/library/core/src/fmt/mod.rs:1287
80202af0: 17 85 00 00  	auipc	a0, 8
80202af4: 13 05 85 4e  	addi	a0, a0, 1256
80202af8: aa e8        	sd	a0, 80(sp)
; /rustc/ecd44958e0a21110d09862ee080d95a4ca6c52f8/library/core/src/fmt/builders.rs:327
80202afa: 2c 10        	addi	a1, sp, 40
80202afc: 4a 85        	mv	a0, s2
80202afe: 02 96        	jalr	a2
80202b00: 19 e9        	bnez	a0, 0x80202b16 <.LBB166_20+0xe>
; /rustc/ecd44958e0a21110d09862ee080d95a4ca6c52f8/library/core/src/fmt/mod.rs:1627
80202b02: c6 65        	ld	a1, 80(sp)
80202b04: 26 65        	ld	a0, 72(sp)
80202b06: 94 6d        	ld	a3, 24(a1)

0000000080202b08 <.LBB166_20>:
; .LBB166_20():
; /rustc/ecd44958e0a21110d09862ee080d95a4ca6c52f8/library/core/src/fmt/mod.rs:1627
80202b08: 97 85 00 00  	auipc	a1, 8
80202b0c: 93 85 35 50  	addi	a1, a1, 1283
80202b10: 09 46        	li	a2, 2
80202b12: 82 96        	jalr	a3
80202b14: aa 84        	mv	s1, a0
; /rustc/ecd44958e0a21110d09862ee080d95a4ca6c52f8/library/core/src/fmt/builders.rs:319
80202b16: 23 08 94 00  	sb	s1, 16(s0)
; /rustc/ecd44958e0a21110d09862ee080d95a4ca6c52f8/library/core/src/fmt/builders.rs:336
80202b1a: 13 85 1a 00  	addi	a0, s5, 1
80202b1e: 08 e4        	sd	a0, 8(s0)
; /rustc/ecd44958e0a21110d09862ee080d95a4ca6c52f8/library/core/src/fmt/builders.rs:338
80202b20: 22 85        	mv	a0, s0
80202b22: ea 60        	ld	ra, 152(sp)
80202b24: 4a 64        	ld	s0, 144(sp)
80202b26: aa 64        	ld	s1, 136(sp)
80202b28: 0a 69        	ld	s2, 128(sp)
80202b2a: e6 79        	ld	s3, 120(sp)
80202b2c: 46 7a        	ld	s4, 112(sp)
80202b2e: a6 7a        	ld	s5, 104(sp)
80202b30: 0d 61        	addi	sp, sp, 160
80202b32: 82 80        	ret

0000000080202b34 <_ZN4core3fmt8builders10DebugTuple6finish17h7e0c14d7fca5adceE>:
; _ZN4core3fmt8builders10DebugTuple6finish17h7e0c14d7fca5adceE():
; /rustc/ecd44958e0a21110d09862ee080d95a4ca6c52f8/library/core/src/fmt/builders.rs:365
80202b34: 01 11        	addi	sp, sp, -32
80202b36: 06 ec        	sd	ra, 24(sp)
80202b38: 22 e8        	sd	s0, 16(sp)
80202b3a: 26 e4        	sd	s1, 8(sp)
80202b3c: 4a e0        	sd	s2, 0(sp)
80202b3e: 2a 84        	mv	s0, a0
; /rustc/ecd44958e0a21110d09862ee080d95a4ca6c52f8/library/core/src/fmt/builders.rs:366
80202b40: 08 65        	ld	a0, 8(a0)
80202b42: 83 45 04 01  	lbu	a1, 16(s0)
; /rustc/ecd44958e0a21110d09862ee080d95a4ca6c52f8/library/core/src/fmt/builders.rs:366
80202b46: 31 cd        	beqz	a0, 0x80202ba2 <.LBB167_9+0x14>
80202b48: 85 44        	li	s1, 1
; /rustc/ecd44958e0a21110d09862ee080d95a4ca6c52f8/library/core/src/result.rs:1331
80202b4a: a9 e9        	bnez	a1, 0x80202b9c <.LBB167_9+0xe>
; /rustc/ecd44958e0a21110d09862ee080d95a4ca6c52f8/library/core/src/fmt/builders.rs:368
80202b4c: 83 45 14 01  	lbu	a1, 17(s0)
80202b50: 7d 15        	addi	a0, a0, -1
80202b52: 13 35 15 00  	seqz	a0, a0
80202b56: 03 39 04 00  	ld	s2, 0(s0)
; /rustc/ecd44958e0a21110d09862ee080d95a4ca6c52f8/library/core/src/fmt/builders.rs:368
80202b5a: b3 35 b0 00  	snez	a1, a1
80202b5e: 6d 8d        	and	a0, a0, a1
80202b60: 15 c1        	beqz	a0, 0x80202b84 <.LBB167_8+0x10>
; /rustc/ecd44958e0a21110d09862ee080d95a4ca6c52f8/library/core/src/fmt/mod.rs:1886
80202b62: 03 45 09 03  	lbu	a0, 48(s2)
80202b66: 11 89        	andi	a0, a0, 4
; /rustc/ecd44958e0a21110d09862ee080d95a4ca6c52f8/library/core/src/fmt/builders.rs:368
80202b68: 11 ed        	bnez	a0, 0x80202b84 <.LBB167_8+0x10>
; /rustc/ecd44958e0a21110d09862ee080d95a4ca6c52f8/library/core/src/fmt/mod.rs:1627
80202b6a: 83 35 89 02  	ld	a1, 40(s2)
80202b6e: 03 35 09 02  	ld	a0, 32(s2)
80202b72: 94 6d        	ld	a3, 24(a1)

0000000080202b74 <.LBB167_8>:
; .LBB167_8():
; /rustc/ecd44958e0a21110d09862ee080d95a4ca6c52f8/library/core/src/fmt/mod.rs:1627
80202b74: 97 85 00 00  	auipc	a1, 8
80202b78: 93 85 45 4a  	addi	a1, a1, 1188
80202b7c: 05 46        	li	a2, 1
80202b7e: 85 44        	li	s1, 1
80202b80: 82 96        	jalr	a3
; /rustc/ecd44958e0a21110d09862ee080d95a4ca6c52f8/library/core/src/fmt/builders.rs:369
80202b82: 09 ed        	bnez	a0, 0x80202b9c <.LBB167_9+0xe>
; /rustc/ecd44958e0a21110d09862ee080d95a4ca6c52f8/library/core/src/fmt/mod.rs:1627
80202b84: 83 35 89 02  	ld	a1, 40(s2)
80202b88: 03 35 09 02  	ld	a0, 32(s2)
80202b8c: 94 6d        	ld	a3, 24(a1)

0000000080202b8e <.LBB167_9>:
; .LBB167_9():
; /rustc/ecd44958e0a21110d09862ee080d95a4ca6c52f8/library/core/src/fmt/mod.rs:1627
80202b8e: 97 85 00 00  	auipc	a1, 8
80202b92: 93 85 a5 33  	addi	a1, a1, 826
80202b96: 05 46        	li	a2, 1
80202b98: 82 96        	jalr	a3
80202b9a: aa 84        	mv	s1, a0
; /rustc/ecd44958e0a21110d09862ee080d95a4ca6c52f8/library/core/src/fmt/builders.rs:367
80202b9c: 23 08 94 00  	sb	s1, 16(s0)
80202ba0: a6 85        	mv	a1, s1
; /rustc/ecd44958e0a21110d09862ee080d95a4ca6c52f8/library/core/src/fmt/builders.rs:374
80202ba2: 33 35 b0 00  	snez	a0, a1
; /rustc/ecd44958e0a21110d09862ee080d95a4ca6c52f8/library/core/src/fmt/builders.rs:375
80202ba6: e2 60        	ld	ra, 24(sp)
80202ba8: 42 64        	ld	s0, 16(sp)
80202baa: a2 64        	ld	s1, 8(sp)
80202bac: 02 69        	ld	s2, 0(sp)
80202bae: 05 61        	addi	sp, sp, 32
80202bb0: 82 80        	ret

0000000080202bb2 <_ZN4core3fmt8builders10DebugInner5entry17hee9dad4f5cc635b9E>:
; _ZN4core3fmt8builders10DebugInner5entry17hee9dad4f5cc635b9E():
; /rustc/ecd44958e0a21110d09862ee080d95a4ca6c52f8/library/core/src/fmt/builders.rs:389
80202bb2: 35 71        	addi	sp, sp, -160
80202bb4: 06 ed        	sd	ra, 152(sp)
80202bb6: 22 e9        	sd	s0, 144(sp)
80202bb8: 26 e5        	sd	s1, 136(sp)
80202bba: 4a e1        	sd	s2, 128(sp)
80202bbc: ce fc        	sd	s3, 120(sp)
80202bbe: d2 f8        	sd	s4, 112(sp)
80202bc0: d6 f4        	sd	s5, 104(sp)
80202bc2: 2a 84        	mv	s0, a0
; /rustc/ecd44958e0a21110d09862ee080d95a4ca6c52f8/library/core/src/fmt/builders.rs:390
80202bc4: 03 45 85 00  	lbu	a0, 8(a0)
80202bc8: 85 4a        	li	s5, 1
80202bca: 85 44        	li	s1, 1
; /rustc/ecd44958e0a21110d09862ee080d95a4ca6c52f8/library/core/src/result.rs:1331
80202bcc: 11 cd        	beqz	a0, 0x80202be8 <_ZN4core3fmt8builders10DebugInner5entry17hee9dad4f5cc635b9E+0x36>
; /rustc/ecd44958e0a21110d09862ee080d95a4ca6c52f8/library/core/src/fmt/builders.rs:390
80202bce: 23 04 94 00  	sb	s1, 8(s0)
; /rustc/ecd44958e0a21110d09862ee080d95a4ca6c52f8/library/core/src/fmt/builders.rs:408
80202bd2: a3 04 54 01  	sb	s5, 9(s0)
; /rustc/ecd44958e0a21110d09862ee080d95a4ca6c52f8/library/core/src/fmt/builders.rs:409
80202bd6: ea 60        	ld	ra, 152(sp)
80202bd8: 4a 64        	ld	s0, 144(sp)
80202bda: aa 64        	ld	s1, 136(sp)
80202bdc: 0a 69        	ld	s2, 128(sp)
80202bde: e6 79        	ld	s3, 120(sp)
80202be0: 46 7a        	ld	s4, 112(sp)
80202be2: a6 7a        	ld	s5, 104(sp)
80202be4: 0d 61        	addi	sp, sp, 160
80202be6: 82 80        	ret
80202be8: b2 89        	mv	s3, a2
80202bea: 2e 89        	mv	s2, a1
; /rustc/ecd44958e0a21110d09862ee080d95a4ca6c52f8/library/core/src/fmt/builders.rs:391
80202bec: 03 3a 04 00  	ld	s4, 0(s0)
80202bf0: 03 65 0a 03  	lwu	a0, 48(s4)
80202bf4: 83 45 94 00  	lbu	a1, 9(s0)
; /rustc/ecd44958e0a21110d09862ee080d95a4ca6c52f8/library/core/src/fmt/mod.rs:1886
80202bf8: 13 76 45 00  	andi	a2, a0, 4
; /rustc/ecd44958e0a21110d09862ee080d95a4ca6c52f8/library/core/src/fmt/builders.rs:391
80202bfc: 15 e6        	bnez	a2, 0x80202c28 <.LBB168_11+0x1e>
; /rustc/ecd44958e0a21110d09862ee080d95a4ca6c52f8/library/core/src/fmt/builders.rs:401
80202bfe: 91 cd        	beqz	a1, 0x80202c1a <.LBB168_11+0x10>
; /rustc/ecd44958e0a21110d09862ee080d95a4ca6c52f8/library/core/src/fmt/mod.rs:1627
80202c00: 83 35 8a 02  	ld	a1, 40(s4)
80202c04: 03 35 0a 02  	ld	a0, 32(s4)
80202c08: 94 6d        	ld	a3, 24(a1)

0000000080202c0a <.LBB168_11>:
; .LBB168_11():
; /rustc/ecd44958e0a21110d09862ee080d95a4ca6c52f8/library/core/src/fmt/mod.rs:1627
80202c0a: 97 85 00 00  	auipc	a1, 8
80202c0e: 93 85 35 40  	addi	a1, a1, 1027
80202c12: 09 46        	li	a2, 2
80202c14: 82 96        	jalr	a3
80202c16: 85 44        	li	s1, 1
; /rustc/ecd44958e0a21110d09862ee080d95a4ca6c52f8/library/core/src/fmt/builders.rs:402
80202c18: 5d f9        	bnez	a0, 0x80202bce <_ZN4core3fmt8builders10DebugInner5entry17hee9dad4f5cc635b9E+0x1c>
; /rustc/ecd44958e0a21110d09862ee080d95a4ca6c52f8/library/core/src/fmt/builders.rs:404
80202c1a: 03 b6 89 01  	ld	a2, 24(s3)
80202c1e: 4a 85        	mv	a0, s2
80202c20: d2 85        	mv	a1, s4
80202c22: 02 96        	jalr	a2
80202c24: aa 84        	mv	s1, a0
80202c26: 65 b7        	j	0x80202bce <_ZN4core3fmt8builders10DebugInner5entry17hee9dad4f5cc635b9E+0x1c>
; /rustc/ecd44958e0a21110d09862ee080d95a4ca6c52f8/library/core/src/fmt/builders.rs:392
80202c28: 85 e1        	bnez	a1, 0x80202c48 <.LBB168_12+0x14>
; /rustc/ecd44958e0a21110d09862ee080d95a4ca6c52f8/library/core/src/fmt/mod.rs:1627
80202c2a: 83 35 8a 02  	ld	a1, 40(s4)
80202c2e: 03 35 0a 02  	ld	a0, 32(s4)
80202c32: 94 6d        	ld	a3, 24(a1)

0000000080202c34 <.LBB168_12>:
; .LBB168_12():
; /rustc/ecd44958e0a21110d09862ee080d95a4ca6c52f8/library/core/src/fmt/mod.rs:1627
80202c34: 97 85 00 00  	auipc	a1, 8
80202c38: 93 85 55 3e  	addi	a1, a1, 997
80202c3c: 05 46        	li	a2, 1
80202c3e: 85 44        	li	s1, 1
80202c40: 82 96        	jalr	a3
; /rustc/ecd44958e0a21110d09862ee080d95a4ca6c52f8/library/core/src/fmt/builders.rs:393
80202c42: 51 f5        	bnez	a0, 0x80202bce <_ZN4core3fmt8builders10DebugInner5entry17hee9dad4f5cc635b9E+0x1c>
; /rustc/ecd44958e0a21110d09862ee080d95a4ca6c52f8/library/core/src/fmt/mod.rs:1292
80202c44: 03 25 0a 03  	lw	a0, 48(s4)
80202c48: 85 44        	li	s1, 1
; /rustc/ecd44958e0a21110d09862ee080d95a4ca6c52f8/library/core/src/fmt/builders.rs:396
80202c4a: a3 03 91 02  	sb	s1, 39(sp)
; /rustc/ecd44958e0a21110d09862ee080d95a4ca6c52f8/library/core/src/fmt/mod.rs:1289
80202c4e: 83 35 0a 02  	ld	a1, 32(s4)
80202c52: 03 36 8a 02  	ld	a2, 40(s4)
; /rustc/ecd44958e0a21110d09862ee080d95a4ca6c52f8/library/core/src/option.rs:1421
80202c56: 2e e4        	sd	a1, 8(sp)
80202c58: 32 e8        	sd	a2, 16(sp)
80202c5a: 93 05 71 02  	addi	a1, sp, 39
80202c5e: 2e ec        	sd	a1, 24(sp)
; /rustc/ecd44958e0a21110d09862ee080d95a4ca6c52f8/library/core/src/fmt/mod.rs:1293
80202c60: 83 25 4a 03  	lw	a1, 52(s4)
; /rustc/ecd44958e0a21110d09862ee080d95a4ca6c52f8/library/core/src/fmt/mod.rs:1294
80202c64: 03 06 8a 03  	lb	a2, 56(s4)
; /rustc/ecd44958e0a21110d09862ee080d95a4ca6c52f8/library/core/src/fmt/mod.rs:1295
80202c68: 83 36 0a 00  	ld	a3, 0(s4)
80202c6c: 03 37 8a 00  	ld	a4, 8(s4)
; /rustc/ecd44958e0a21110d09862ee080d95a4ca6c52f8/library/core/src/fmt/mod.rs:1296
80202c70: 83 37 0a 01  	ld	a5, 16(s4)
80202c74: 03 38 8a 01  	ld	a6, 24(s4)
; /rustc/ecd44958e0a21110d09862ee080d95a4ca6c52f8/library/core/src/fmt/mod.rs:1287
80202c78: aa cc        	sw	a0, 88(sp)
80202c7a: ae ce        	sw	a1, 92(sp)
80202c7c: 23 00 c1 06  	sb	a2, 96(sp)
80202c80: 36 f4        	sd	a3, 40(sp)
80202c82: 3a f8        	sd	a4, 48(sp)
80202c84: 3e fc        	sd	a5, 56(sp)
80202c86: c2 e0        	sd	a6, 64(sp)
80202c88: 28 00        	addi	a0, sp, 8
; /rustc/ecd44958e0a21110d09862ee080d95a4ca6c52f8/library/core/src/fmt/builders.rs:398
80202c8a: 03 b6 89 01  	ld	a2, 24(s3)
; /rustc/ecd44958e0a21110d09862ee080d95a4ca6c52f8/library/core/src/fmt/mod.rs:1287
80202c8e: aa e4        	sd	a0, 72(sp)

0000000080202c90 <.LBB168_13>:
; .LBB168_13():
; /rustc/ecd44958e0a21110d09862ee080d95a4ca6c52f8/library/core/src/fmt/mod.rs:1287
80202c90: 17 85 00 00  	auipc	a0, 8
80202c94: 13 05 85 34  	addi	a0, a0, 840
80202c98: aa e8        	sd	a0, 80(sp)
; /rustc/ecd44958e0a21110d09862ee080d95a4ca6c52f8/library/core/src/fmt/builders.rs:398
80202c9a: 2c 10        	addi	a1, sp, 40
80202c9c: 4a 85        	mv	a0, s2
80202c9e: 02 96        	jalr	a2
80202ca0: 1d f5        	bnez	a0, 0x80202bce <_ZN4core3fmt8builders10DebugInner5entry17hee9dad4f5cc635b9E+0x1c>
; /rustc/ecd44958e0a21110d09862ee080d95a4ca6c52f8/library/core/src/fmt/mod.rs:1627
80202ca2: c6 65        	ld	a1, 80(sp)
80202ca4: 26 65        	ld	a0, 72(sp)
80202ca6: 94 6d        	ld	a3, 24(a1)

0000000080202ca8 <.LBB168_14>:
; .LBB168_14():
; /rustc/ecd44958e0a21110d09862ee080d95a4ca6c52f8/library/core/src/fmt/mod.rs:1627
80202ca8: 97 85 00 00  	auipc	a1, 8
80202cac: 93 85 35 36  	addi	a1, a1, 867
80202cb0: 09 46        	li	a2, 2
80202cb2: 82 96        	jalr	a3
80202cb4: aa 84        	mv	s1, a0
80202cb6: 21 bf        	j	0x80202bce <_ZN4core3fmt8builders10DebugInner5entry17hee9dad4f5cc635b9E+0x1c>

0000000080202cb8 <_ZN4core3fmt8builders9DebugList5entry17hbd799697f6402be6E>:
; _ZN4core3fmt8builders8DebugSet5entry17hf4b62b7d0f2d858bE():
; /rustc/ecd44958e0a21110d09862ee080d95a4ca6c52f8/library/core/src/fmt/builders.rs:478
80202cb8: 41 11        	addi	sp, sp, -16
80202cba: 06 e4        	sd	ra, 8(sp)
80202cbc: 22 e0        	sd	s0, 0(sp)
80202cbe: 2a 84        	mv	s0, a0
; /rustc/ecd44958e0a21110d09862ee080d95a4ca6c52f8/library/core/src/fmt/builders.rs:479
80202cc0: 97 00 00 00  	auipc	ra, 0
80202cc4: e7 80 20 ef  	jalr	-270(ra)
; /rustc/ecd44958e0a21110d09862ee080d95a4ca6c52f8/library/core/src/fmt/builders.rs:481
80202cc8: 22 85        	mv	a0, s0
80202cca: a2 60        	ld	ra, 8(sp)
80202ccc: 02 64        	ld	s0, 0(sp)
80202cce: 41 01        	addi	sp, sp, 16
80202cd0: 82 80        	ret

0000000080202cd2 <_ZN4core3fmt8builders9DebugList6finish17h706b05b62030b7acE>:
; _ZN4core3fmt8builders9DebugList6finish17h706b05b62030b7acE():
; /rustc/ecd44958e0a21110d09862ee080d95a4ca6c52f8/library/core/src/fmt/builders.rs:672
80202cd2: 83 45 85 00  	lbu	a1, 8(a0)
; /rustc/ecd44958e0a21110d09862ee080d95a4ca6c52f8/library/core/src/result.rs:1331
80202cd6: 99 c1        	beqz	a1, 0x80202cdc <_ZN4core3fmt8builders9DebugList6finish17h706b05b62030b7acE+0xa>
; /rustc/ecd44958e0a21110d09862ee080d95a4ca6c52f8/library/core/src/fmt/builders.rs:673
80202cd8: 05 45        	li	a0, 1
80202cda: 82 80        	ret
80202cdc: 08 61        	ld	a0, 0(a0)
; /rustc/ecd44958e0a21110d09862ee080d95a4ca6c52f8/library/core/src/fmt/mod.rs:1627
80202cde: 0c 75        	ld	a1, 40(a0)
80202ce0: 08 71        	ld	a0, 32(a0)
80202ce2: 9c 6d        	ld	a5, 24(a1)

0000000080202ce4 <.LBB171_3>:
; .LBB171_3():
; /rustc/ecd44958e0a21110d09862ee080d95a4ca6c52f8/library/core/src/fmt/mod.rs:1627
80202ce4: 97 85 00 00  	auipc	a1, 8
80202ce8: 93 85 c5 35  	addi	a1, a1, 860
80202cec: 05 46        	li	a2, 1
80202cee: 82 87        	jr	a5

0000000080202cf0 <_ZN4core3fmt5Write10write_char17h330953c0d3bad0d7E>:
; _ZN4core3fmt5Write10write_char17h330953c0d3bad0d7E():
; /rustc/ecd44958e0a21110d09862ee080d95a4ca6c52f8/library/core/src/fmt/mod.rs:163
80202cf0: 41 11        	addi	sp, sp, -16
80202cf2: 06 e4        	sd	ra, 8(sp)
80202cf4: 1b 86 05 00  	sext.w	a2, a1
80202cf8: 93 06 00 08  	li	a3, 128
; /rustc/ecd44958e0a21110d09862ee080d95a4ca6c52f8/library/core/src/fmt/mod.rs:164
80202cfc: 02 c2        	sw	zero, 4(sp)
; /rustc/ecd44958e0a21110d09862ee080d95a4ca6c52f8/library/core/src/char/methods.rs:1638
80202cfe: 63 76 d6 00  	bgeu	a2, a3, 0x80202d0a <_ZN4core3fmt5Write10write_char17h330953c0d3bad0d7E+0x1a>
; /rustc/ecd44958e0a21110d09862ee080d95a4ca6c52f8/library/core/src/char/methods.rs:1669
80202d02: 23 02 b1 00  	sb	a1, 4(sp)
80202d06: 05 46        	li	a2, 1
80202d08: 41 a8        	j	0x80202d98 <_ZN4core3fmt5Write10write_char17h330953c0d3bad0d7E+0xa8>
; /rustc/ecd44958e0a21110d09862ee080d95a4ca6c52f8/library/core/src/char/methods.rs:1640
80202d0a: 1b d6 b5 00  	srliw	a2, a1, 11
80202d0e: 19 ee        	bnez	a2, 0x80202d2c <_ZN4core3fmt5Write10write_char17h330953c0d3bad0d7E+0x3c>
; /rustc/ecd44958e0a21110d09862ee080d95a4ca6c52f8/library/core/src/char/methods.rs:1672
80202d10: 13 d6 65 00  	srli	a2, a1, 6
80202d14: 13 66 06 0c  	ori	a2, a2, 192
80202d18: 23 02 c1 00  	sb	a2, 4(sp)
; /rustc/ecd44958e0a21110d09862ee080d95a4ca6c52f8/library/core/src/char/methods.rs:1673
80202d1c: 93 f5 f5 03  	andi	a1, a1, 63
80202d20: 93 e5 05 08  	ori	a1, a1, 128
80202d24: a3 02 b1 00  	sb	a1, 5(sp)
80202d28: 09 46        	li	a2, 2
80202d2a: bd a0        	j	0x80202d98 <_ZN4core3fmt5Write10write_char17h330953c0d3bad0d7E+0xa8>
; /rustc/ecd44958e0a21110d09862ee080d95a4ca6c52f8/library/core/src/char/methods.rs:1642
80202d2c: 1b d6 05 01  	srliw	a2, a1, 16
80202d30: 1d e6        	bnez	a2, 0x80202d5e <_ZN4core3fmt5Write10write_char17h330953c0d3bad0d7E+0x6e>
; /rustc/ecd44958e0a21110d09862ee080d95a4ca6c52f8/library/core/src/char/methods.rs:1676
80202d32: 1b d6 c5 00  	srliw	a2, a1, 12
80202d36: 13 66 06 0e  	ori	a2, a2, 224
80202d3a: 23 02 c1 00  	sb	a2, 4(sp)
; /rustc/ecd44958e0a21110d09862ee080d95a4ca6c52f8/library/core/src/char/methods.rs:1677
80202d3e: 1b d6 65 00  	srliw	a2, a1, 6
80202d42: 13 76 f6 03  	andi	a2, a2, 63
80202d46: 13 66 06 08  	ori	a2, a2, 128
80202d4a: a3 02 c1 00  	sb	a2, 5(sp)
; /rustc/ecd44958e0a21110d09862ee080d95a4ca6c52f8/library/core/src/char/methods.rs:1678
80202d4e: 93 f5 f5 03  	andi	a1, a1, 63
80202d52: 93 e5 05 08  	ori	a1, a1, 128
80202d56: 23 03 b1 00  	sb	a1, 6(sp)
80202d5a: 0d 46        	li	a2, 3
80202d5c: 35 a8        	j	0x80202d98 <_ZN4core3fmt5Write10write_char17h330953c0d3bad0d7E+0xa8>
; /rustc/ecd44958e0a21110d09862ee080d95a4ca6c52f8/library/core/src/char/methods.rs:1681
80202d5e: 1b d6 25 01  	srliw	a2, a1, 18
80202d62: 13 66 06 0f  	ori	a2, a2, 240
80202d66: 23 02 c1 00  	sb	a2, 4(sp)
; /rustc/ecd44958e0a21110d09862ee080d95a4ca6c52f8/library/core/src/char/methods.rs:1682
80202d6a: 1b d6 c5 00  	srliw	a2, a1, 12
80202d6e: 13 76 f6 03  	andi	a2, a2, 63
80202d72: 13 66 06 08  	ori	a2, a2, 128
80202d76: a3 02 c1 00  	sb	a2, 5(sp)
; /rustc/ecd44958e0a21110d09862ee080d95a4ca6c52f8/library/core/src/char/methods.rs:1683
80202d7a: 1b d6 65 00  	srliw	a2, a1, 6
80202d7e: 13 76 f6 03  	andi	a2, a2, 63
80202d82: 13 66 06 08  	ori	a2, a2, 128
80202d86: 23 03 c1 00  	sb	a2, 6(sp)
; /rustc/ecd44958e0a21110d09862ee080d95a4ca6c52f8/library/core/src/char/methods.rs:1684
80202d8a: 93 f5 f5 03  	andi	a1, a1, 63
80202d8e: 93 e5 05 08  	ori	a1, a1, 128
80202d92: a3 03 b1 00  	sb	a1, 7(sp)
80202d96: 11 46        	li	a2, 4
; /rustc/ecd44958e0a21110d09862ee080d95a4ca6c52f8/library/core/src/fmt/mod.rs:164
80202d98: 4c 00        	addi	a1, sp, 4
80202d9a: 97 00 00 00  	auipc	ra, 0
80202d9e: e7 80 60 8a  	jalr	-1882(ra)
; /rustc/ecd44958e0a21110d09862ee080d95a4ca6c52f8/library/core/src/fmt/mod.rs:165
80202da2: a2 60        	ld	ra, 8(sp)
80202da4: 41 01        	addi	sp, sp, 16
80202da6: 82 80        	ret

0000000080202da8 <_ZN4core3fmt5Write9write_fmt17h87c34b5746e052edE>:
; _ZN4core3fmt5Write9write_fmt17h87c34b5746e052edE():
; /rustc/ecd44958e0a21110d09862ee080d95a4ca6c52f8/library/core/src/fmt/mod.rs:186
80202da8: 39 71        	addi	sp, sp, -64
; /rustc/ecd44958e0a21110d09862ee080d95a4ca6c52f8/library/core/src/fmt/mod.rs:187
80202daa: 06 fc        	sd	ra, 56(sp)
80202dac: 90 75        	ld	a2, 40(a1)
80202dae: 94 71        	ld	a3, 32(a1)
80202db0: 2a e0        	sd	a0, 0(sp)
80202db2: 32 f8        	sd	a2, 48(sp)
80202db4: 36 f4        	sd	a3, 40(sp)
80202db6: 88 6d        	ld	a0, 24(a1)
80202db8: 90 69        	ld	a2, 16(a1)
80202dba: 94 65        	ld	a3, 8(a1)
80202dbc: 8c 61        	ld	a1, 0(a1)
80202dbe: 2a f0        	sd	a0, 32(sp)
80202dc0: 32 ec        	sd	a2, 24(sp)
80202dc2: 36 e8        	sd	a3, 16(sp)
80202dc4: 2e e4        	sd	a1, 8(sp)

0000000080202dc6 <.LBB189_1>:
; .LBB189_1():
; /rustc/ecd44958e0a21110d09862ee080d95a4ca6c52f8/library/core/src/fmt/mod.rs:187
80202dc6: 97 85 00 00  	auipc	a1, 8
80202dca: 93 85 a5 34  	addi	a1, a1, 842
80202dce: 0a 85        	mv	a0, sp
80202dd0: 30 00        	addi	a2, sp, 8
80202dd2: 97 00 00 00  	auipc	ra, 0
80202dd6: e7 80 e0 13  	jalr	318(ra)
; /rustc/ecd44958e0a21110d09862ee080d95a4ca6c52f8/library/core/src/fmt/mod.rs:188
80202dda: e2 70        	ld	ra, 56(sp)
80202ddc: 21 61        	addi	sp, sp, 64
80202dde: 82 80        	ret

0000000080202de0 <_ZN50_$LT$$RF$mut$u20$W$u20$as$u20$core..fmt..Write$GT$9write_str17he0f3de8baed10375E>:
; _ZN50_$LT$$RF$mut$u20$W$u20$as$u20$core..fmt..Write$GT$9write_str17he0f3de8baed10375E():
; /rustc/ecd44958e0a21110d09862ee080d95a4ca6c52f8/library/core/src/fmt/mod.rs:194
80202de0: 08 61        	ld	a0, 0(a0)
80202de2: 17 03 00 00  	auipc	t1, 0
80202de6: 67 00 e3 85  	jr	-1954(t1)

0000000080202dea <_ZN50_$LT$$RF$mut$u20$W$u20$as$u20$core..fmt..Write$GT$10write_char17h896a362daa1b3f2fE>:
; _ZN50_$LT$$RF$mut$u20$W$u20$as$u20$core..fmt..Write$GT$10write_char17h896a362daa1b3f2fE():
; /rustc/ecd44958e0a21110d09862ee080d95a4ca6c52f8/library/core/src/fmt/mod.rs:197
80202dea: 41 11        	addi	sp, sp, -16
; /rustc/ecd44958e0a21110d09862ee080d95a4ca6c52f8/library/core/src/fmt/mod.rs:198
80202dec: 06 e4        	sd	ra, 8(sp)
80202dee: 08 61        	ld	a0, 0(a0)
80202df0: 1b 86 05 00  	sext.w	a2, a1
80202df4: 93 06 00 08  	li	a3, 128
; /rustc/ecd44958e0a21110d09862ee080d95a4ca6c52f8/library/core/src/fmt/mod.rs:164
80202df8: 02 c2        	sw	zero, 4(sp)
; /rustc/ecd44958e0a21110d09862ee080d95a4ca6c52f8/library/core/src/char/methods.rs:1638
80202dfa: 63 76 d6 00  	bgeu	a2, a3, 0x80202e06 <_ZN50_$LT$$RF$mut$u20$W$u20$as$u20$core..fmt..Write$GT$10write_char17h896a362daa1b3f2fE+0x1c>
; /rustc/ecd44958e0a21110d09862ee080d95a4ca6c52f8/library/core/src/char/methods.rs:1669
80202dfe: 23 02 b1 00  	sb	a1, 4(sp)
80202e02: 05 46        	li	a2, 1
80202e04: 41 a8        	j	0x80202e94 <_ZN50_$LT$$RF$mut$u20$W$u20$as$u20$core..fmt..Write$GT$10write_char17h896a362daa1b3f2fE+0xaa>
; /rustc/ecd44958e0a21110d09862ee080d95a4ca6c52f8/library/core/src/char/methods.rs:1640
80202e06: 1b d6 b5 00  	srliw	a2, a1, 11
80202e0a: 19 ee        	bnez	a2, 0x80202e28 <_ZN50_$LT$$RF$mut$u20$W$u20$as$u20$core..fmt..Write$GT$10write_char17h896a362daa1b3f2fE+0x3e>
; /rustc/ecd44958e0a21110d09862ee080d95a4ca6c52f8/library/core/src/char/methods.rs:1672
80202e0c: 13 d6 65 00  	srli	a2, a1, 6
80202e10: 13 66 06 0c  	ori	a2, a2, 192
80202e14: 23 02 c1 00  	sb	a2, 4(sp)
; /rustc/ecd44958e0a21110d09862ee080d95a4ca6c52f8/library/core/src/char/methods.rs:1673
80202e18: 93 f5 f5 03  	andi	a1, a1, 63
80202e1c: 93 e5 05 08  	ori	a1, a1, 128
80202e20: a3 02 b1 00  	sb	a1, 5(sp)
80202e24: 09 46        	li	a2, 2
80202e26: bd a0        	j	0x80202e94 <_ZN50_$LT$$RF$mut$u20$W$u20$as$u20$core..fmt..Write$GT$10write_char17h896a362daa1b3f2fE+0xaa>
; /rustc/ecd44958e0a21110d09862ee080d95a4ca6c52f8/library/core/src/char/methods.rs:1642
80202e28: 1b d6 05 01  	srliw	a2, a1, 16
80202e2c: 1d e6        	bnez	a2, 0x80202e5a <_ZN50_$LT$$RF$mut$u20$W$u20$as$u20$core..fmt..Write$GT$10write_char17h896a362daa1b3f2fE+0x70>
; /rustc/ecd44958e0a21110d09862ee080d95a4ca6c52f8/library/core/src/char/methods.rs:1676
80202e2e: 1b d6 c5 00  	srliw	a2, a1, 12
80202e32: 13 66 06 0e  	ori	a2, a2, 224
80202e36: 23 02 c1 00  	sb	a2, 4(sp)
; /rustc/ecd44958e0a21110d09862ee080d95a4ca6c52f8/library/core/src/char/methods.rs:1677
80202e3a: 1b d6 65 00  	srliw	a2, a1, 6
80202e3e: 13 76 f6 03  	andi	a2, a2, 63
80202e42: 13 66 06 08  	ori	a2, a2, 128
80202e46: a3 02 c1 00  	sb	a2, 5(sp)
; /rustc/ecd44958e0a21110d09862ee080d95a4ca6c52f8/library/core/src/char/methods.rs:1678
80202e4a: 93 f5 f5 03  	andi	a1, a1, 63
80202e4e: 93 e5 05 08  	ori	a1, a1, 128
80202e52: 23 03 b1 00  	sb	a1, 6(sp)
80202e56: 0d 46        	li	a2, 3
80202e58: 35 a8        	j	0x80202e94 <_ZN50_$LT$$RF$mut$u20$W$u20$as$u20$core..fmt..Write$GT$10write_char17h896a362daa1b3f2fE+0xaa>
; /rustc/ecd44958e0a21110d09862ee080d95a4ca6c52f8/library/core/src/char/methods.rs:1681
80202e5a: 1b d6 25 01  	srliw	a2, a1, 18
80202e5e: 13 66 06 0f  	ori	a2, a2, 240
80202e62: 23 02 c1 00  	sb	a2, 4(sp)
; /rustc/ecd44958e0a21110d09862ee080d95a4ca6c52f8/library/core/src/char/methods.rs:1682
80202e66: 1b d6 c5 00  	srliw	a2, a1, 12
80202e6a: 13 76 f6 03  	andi	a2, a2, 63
80202e6e: 13 66 06 08  	ori	a2, a2, 128
80202e72: a3 02 c1 00  	sb	a2, 5(sp)
; /rustc/ecd44958e0a21110d09862ee080d95a4ca6c52f8/library/core/src/char/methods.rs:1683
80202e76: 1b d6 65 00  	srliw	a2, a1, 6
80202e7a: 13 76 f6 03  	andi	a2, a2, 63
80202e7e: 13 66 06 08  	ori	a2, a2, 128
80202e82: 23 03 c1 00  	sb	a2, 6(sp)
; /rustc/ecd44958e0a21110d09862ee080d95a4ca6c52f8/library/core/src/char/methods.rs:1684
80202e86: 93 f5 f5 03  	andi	a1, a1, 63
80202e8a: 93 e5 05 08  	ori	a1, a1, 128
80202e8e: a3 03 b1 00  	sb	a1, 7(sp)
80202e92: 11 46        	li	a2, 4
; /rustc/ecd44958e0a21110d09862ee080d95a4ca6c52f8/library/core/src/fmt/mod.rs:164
80202e94: 4c 00        	addi	a1, sp, 4
80202e96: 97 f0 ff ff  	auipc	ra, 1048575
80202e9a: e7 80 a0 7a  	jalr	1962(ra)
; /rustc/ecd44958e0a21110d09862ee080d95a4ca6c52f8/library/core/src/fmt/mod.rs:199
80202e9e: a2 60        	ld	ra, 8(sp)
80202ea0: 41 01        	addi	sp, sp, 16
80202ea2: 82 80        	ret

0000000080202ea4 <_ZN50_$LT$$RF$mut$u20$W$u20$as$u20$core..fmt..Write$GT$9write_fmt17h5fe617dfe0b672daE>:
; _ZN50_$LT$$RF$mut$u20$W$u20$as$u20$core..fmt..Write$GT$9write_fmt17h5fe617dfe0b672daE():
; /rustc/ecd44958e0a21110d09862ee080d95a4ca6c52f8/library/core/src/fmt/mod.rs:201
80202ea4: 39 71        	addi	sp, sp, -64
; /rustc/ecd44958e0a21110d09862ee080d95a4ca6c52f8/library/core/src/fmt/mod.rs:202
80202ea6: 06 fc        	sd	ra, 56(sp)
80202ea8: 08 61        	ld	a0, 0(a0)
; /rustc/ecd44958e0a21110d09862ee080d95a4ca6c52f8/library/core/src/fmt/mod.rs:187
80202eaa: 90 75        	ld	a2, 40(a1)
80202eac: 94 71        	ld	a3, 32(a1)
80202eae: 2a e0        	sd	a0, 0(sp)
80202eb0: 32 f8        	sd	a2, 48(sp)
80202eb2: 36 f4        	sd	a3, 40(sp)
80202eb4: 88 6d        	ld	a0, 24(a1)
80202eb6: 90 69        	ld	a2, 16(a1)
80202eb8: 94 65        	ld	a3, 8(a1)
80202eba: 8c 61        	ld	a1, 0(a1)
80202ebc: 2a f0        	sd	a0, 32(sp)
80202ebe: 32 ec        	sd	a2, 24(sp)
80202ec0: 36 e8        	sd	a3, 16(sp)
80202ec2: 2e e4        	sd	a1, 8(sp)

0000000080202ec4 <.LBB192_1>:
; .LBB192_1():
; /rustc/ecd44958e0a21110d09862ee080d95a4ca6c52f8/library/core/src/fmt/mod.rs:187
80202ec4: 97 85 00 00  	auipc	a1, 8
80202ec8: 93 85 c5 24  	addi	a1, a1, 588
80202ecc: 0a 85        	mv	a0, sp
80202ece: 30 00        	addi	a2, sp, 8
80202ed0: 97 00 00 00  	auipc	ra, 0
80202ed4: e7 80 00 04  	jalr	64(ra)
; /rustc/ecd44958e0a21110d09862ee080d95a4ca6c52f8/library/core/src/fmt/mod.rs:203
80202ed8: e2 70        	ld	ra, 56(sp)
80202eda: 21 61        	addi	sp, sp, 64
80202edc: 82 80        	ret

0000000080202ede <_ZN59_$LT$core..fmt..Arguments$u20$as$u20$core..fmt..Display$GT$3fmt17h1d965e28606b203aE>:
; _ZN59_$LT$core..fmt..Arguments$u20$as$u20$core..fmt..Display$GT$3fmt17h1d965e28606b203aE():
; /rustc/ecd44958e0a21110d09862ee080d95a4ca6c52f8/library/core/src/fmt/mod.rs:528
80202ede: 39 71        	addi	sp, sp, -64
; /rustc/ecd44958e0a21110d09862ee080d95a4ca6c52f8/library/core/src/fmt/mod.rs:529
80202ee0: 06 fc        	sd	ra, 56(sp)
80202ee2: 10 75        	ld	a2, 40(a0)
80202ee4: 18 71        	ld	a4, 32(a0)
80202ee6: 1c 6d        	ld	a5, 24(a0)
80202ee8: 32 f8        	sd	a2, 48(sp)
80202eea: 94 71        	ld	a3, 32(a1)
80202eec: 3a f4        	sd	a4, 40(sp)
80202eee: 3e f0        	sd	a5, 32(sp)
80202ef0: 10 69        	ld	a2, 16(a0)
80202ef2: 18 65        	ld	a4, 8(a0)
80202ef4: 08 61        	ld	a0, 0(a0)
80202ef6: 8c 75        	ld	a1, 40(a1)
80202ef8: 32 ec        	sd	a2, 24(sp)
80202efa: 3a e8        	sd	a4, 16(sp)
80202efc: 2a e4        	sd	a0, 8(sp)
80202efe: 30 00        	addi	a2, sp, 8
80202f00: 36 85        	mv	a0, a3
80202f02: 97 00 00 00  	auipc	ra, 0
80202f06: e7 80 e0 00  	jalr	14(ra)
; /rustc/ecd44958e0a21110d09862ee080d95a4ca6c52f8/library/core/src/fmt/mod.rs:530
80202f0a: e2 70        	ld	ra, 56(sp)
80202f0c: 21 61        	addi	sp, sp, 64
80202f0e: 82 80        	ret

0000000080202f10 <_ZN4core3fmt5write17hd9076d5cd410af2eE>:
; _ZN4core3fmt5write17hd9076d5cd410af2eE():
; /rustc/ecd44958e0a21110d09862ee080d95a4ca6c52f8/library/core/src/fmt/mod.rs:1182
80202f10: 19 71        	addi	sp, sp, -128
80202f12: 86 fc        	sd	ra, 120(sp)
80202f14: a2 f8        	sd	s0, 112(sp)
80202f16: a6 f4        	sd	s1, 104(sp)
80202f18: ca f0        	sd	s2, 96(sp)
80202f1a: ce ec        	sd	s3, 88(sp)
80202f1c: d2 e8        	sd	s4, 80(sp)
80202f1e: d6 e4        	sd	s5, 72(sp)
80202f20: da e0        	sd	s6, 64(sp)
80202f22: b2 89        	mv	s3, a2
80202f24: 05 46        	li	a2, 1
80202f26: 16 16        	slli	a2, a2, 37
; /rustc/ecd44958e0a21110d09862ee080d95a4ca6c52f8/library/core/src/fmt/mod.rs:238
80202f28: 32 f8        	sd	a2, 48(sp)
80202f2a: 0d 46        	li	a2, 3
80202f2c: 23 0c c1 02  	sb	a2, 56(sp)
; /rustc/ecd44958e0a21110d09862ee080d95a4ca6c52f8/library/core/src/fmt/mod.rs:1186
80202f30: 03 b6 09 01  	ld	a2, 16(s3)
; /rustc/ecd44958e0a21110d09862ee080d95a4ca6c52f8/library/core/src/fmt/mod.rs:238
80202f34: 02 e0        	sd	zero, 0(sp)
80202f36: 02 e8        	sd	zero, 16(sp)
80202f38: 2a f0        	sd	a0, 32(sp)
80202f3a: 2e f4        	sd	a1, 40(sp)
; /rustc/ecd44958e0a21110d09862ee080d95a4ca6c52f8/library/core/src/fmt/mod.rs:1186
80202f3c: 69 ca        	beqz	a2, 0x8020300e <.LBB197_34+0xa6>
; /rustc/ecd44958e0a21110d09862ee080d95a4ca6c52f8/library/core/src/fmt/mod.rs:1200
80202f3e: 03 b5 89 01  	ld	a0, 24(s3)
; /rustc/ecd44958e0a21110d09862ee080d95a4ca6c52f8/library/core/src/slice/iter/macros.rs:146
80202f42: 63 0c 05 10  	beqz	a0, 0x8020305a <.LBB197_34+0xf2>
80202f46: 83 b5 09 00  	ld	a1, 0(s3)
; /rustc/ecd44958e0a21110d09862ee080d95a4ca6c52f8/library/core/src/slice/iter/macros.rs:146
80202f4a: 93 06 f5 ff  	addi	a3, a0, -1
80202f4e: 8e 06        	slli	a3, a3, 3
80202f50: 8d 82        	srli	a3, a3, 3
80202f52: 13 89 16 00  	addi	s2, a3, 1
80202f56: 93 84 85 00  	addi	s1, a1, 8
80202f5a: 93 05 80 03  	li	a1, 56
80202f5e: 33 0a b5 02  	mul	s4, a0, a1
80202f62: 13 04 06 03  	addi	s0, a2, 48
80202f66: 85 4a        	li	s5, 1

0000000080202f68 <.LBB197_34>:
; .LBB197_34():
80202f68: 17 fb ff ff  	auipc	s6, 1048575
80202f6c: 13 0b 4b 2f  	addi	s6, s6, 756
; /rustc/ecd44958e0a21110d09862ee080d95a4ca6c52f8/library/core/src/fmt/mod.rs:1207
80202f70: 90 60        	ld	a2, 0(s1)
80202f72: 09 ca        	beqz	a2, 0x80202f84 <.LBB197_34+0x1c>
; /rustc/ecd44958e0a21110d09862ee080d95a4ca6c52f8/library/core/src/fmt/mod.rs:1208
80202f74: a2 76        	ld	a3, 40(sp)
80202f76: 02 75        	ld	a0, 32(sp)
80202f78: 83 b5 84 ff  	ld	a1, -8(s1)
80202f7c: 94 6e        	ld	a3, 24(a3)
80202f7e: 82 96        	jalr	a3
80202f80: 63 19 05 10  	bnez	a0, 0x80203092 <.LBB197_34+0x12a>
; /rustc/ecd44958e0a21110d09862ee080d95a4ca6c52f8/library/core/src/fmt/mod.rs:1227
80202f84: 03 25 84 ff  	lw	a0, -8(s0)
80202f88: 2a da        	sw	a0, 52(sp)
; /rustc/ecd44958e0a21110d09862ee080d95a4ca6c52f8/library/core/src/fmt/mod.rs:1228
80202f8a: 03 05 04 00  	lb	a0, 0(s0)
80202f8e: 23 0c a1 02  	sb	a0, 56(sp)
; /rustc/ecd44958e0a21110d09862ee080d95a4ca6c52f8/library/core/src/fmt/mod.rs:1229
80202f92: 83 25 c4 ff  	lw	a1, -4(s0)
; /rustc/ecd44958e0a21110d09862ee080d95a4ca6c52f8/library/core/src/fmt/mod.rs:1212
80202f96: 03 b5 09 02  	ld	a0, 32(s3)
; /rustc/ecd44958e0a21110d09862ee080d95a4ca6c52f8/library/core/src/fmt/mod.rs:1229
80202f9a: 2e d8        	sw	a1, 48(sp)
; /rustc/ecd44958e0a21110d09862ee080d95a4ca6c52f8/library/core/src/fmt/mod.rs:1233
80202f9c: 83 36 84 fe  	ld	a3, -24(s0)
80202fa0: 83 35 04 ff  	ld	a1, -16(s0)
; /rustc/ecd44958e0a21110d09862ee080d95a4ca6c52f8/library/core/src/fmt/mod.rs:1248
80202fa4: 89 ce        	beqz	a3, 0x80202fbe <.LBB197_34+0x56>
80202fa6: 01 46        	li	a2, 0
; /rustc/ecd44958e0a21110d09862ee080d95a4ca6c52f8/library/core/src/fmt/mod.rs:1248
80202fa8: 63 9c 56 01  	bne	a3, s5, 0x80202fc0 <.LBB197_34+0x58>
; /rustc/ecd44958e0a21110d09862ee080d95a4ca6c52f8/library/core/src/fmt/mod.rs:360
80202fac: 92 05        	slli	a1, a1, 4
80202fae: aa 95        	add	a1, a1, a0
80202fb0: 90 65        	ld	a2, 8(a1)
80202fb2: 63 04 66 01  	beq	a2, s6, 0x80202fba <.LBB197_34+0x52>
80202fb6: 01 46        	li	a2, 0
80202fb8: 21 a0        	j	0x80202fc0 <.LBB197_34+0x58>
; /rustc/ecd44958e0a21110d09862ee080d95a4ca6c52f8/library/core/src/fmt/mod.rs:363
80202fba: 8c 61        	ld	a1, 0(a1)
80202fbc: 8c 61        	ld	a1, 0(a1)
80202fbe: 05 46        	li	a2, 1
; /rustc/ecd44958e0a21110d09862ee080d95a4ca6c52f8/library/core/src/fmt/mod.rs:1233
80202fc0: 32 e0        	sd	a2, 0(sp)
80202fc2: 2e e4        	sd	a1, 8(sp)
; /rustc/ecd44958e0a21110d09862ee080d95a4ca6c52f8/library/core/src/fmt/mod.rs:1234
80202fc4: 83 36 84 fd  	ld	a3, -40(s0)
80202fc8: 83 35 04 fe  	ld	a1, -32(s0)
; /rustc/ecd44958e0a21110d09862ee080d95a4ca6c52f8/library/core/src/fmt/mod.rs:1248
80202fcc: 89 ce        	beqz	a3, 0x80202fe6 <.LBB197_34+0x7e>
80202fce: 01 46        	li	a2, 0
; /rustc/ecd44958e0a21110d09862ee080d95a4ca6c52f8/library/core/src/fmt/mod.rs:1248
80202fd0: 63 9c 56 01  	bne	a3, s5, 0x80202fe8 <.LBB197_34+0x80>
; /rustc/ecd44958e0a21110d09862ee080d95a4ca6c52f8/library/core/src/fmt/mod.rs:360
80202fd4: 92 05        	slli	a1, a1, 4
80202fd6: aa 95        	add	a1, a1, a0
80202fd8: 90 65        	ld	a2, 8(a1)
80202fda: 63 04 66 01  	beq	a2, s6, 0x80202fe2 <.LBB197_34+0x7a>
80202fde: 01 46        	li	a2, 0
80202fe0: 21 a0        	j	0x80202fe8 <.LBB197_34+0x80>
; /rustc/ecd44958e0a21110d09862ee080d95a4ca6c52f8/library/core/src/fmt/mod.rs:363
80202fe2: 8c 61        	ld	a1, 0(a1)
80202fe4: 8c 61        	ld	a1, 0(a1)
80202fe6: 05 46        	li	a2, 1
; /rustc/ecd44958e0a21110d09862ee080d95a4ca6c52f8/library/core/src/fmt/mod.rs:1234
80202fe8: 32 e8        	sd	a2, 16(sp)
80202fea: 2e ec        	sd	a1, 24(sp)
; /rustc/ecd44958e0a21110d09862ee080d95a4ca6c52f8/library/core/src/fmt/mod.rs:1241
80202fec: 83 35 04 fd  	ld	a1, -48(s0)
; /rustc/ecd44958e0a21110d09862ee080d95a4ca6c52f8/library/core/src/ptr/const_ptr.rs:455
80202ff0: 92 05        	slli	a1, a1, 4
80202ff2: 2e 95        	add	a0, a0, a1
; /rustc/ecd44958e0a21110d09862ee080d95a4ca6c52f8/library/core/src/fmt/mod.rs:1244
80202ff4: 10 65        	ld	a2, 8(a0)
80202ff6: 08 61        	ld	a0, 0(a0)
80202ff8: 8a 85        	mv	a1, sp
80202ffa: 02 96        	jalr	a2
; /rustc/ecd44958e0a21110d09862ee080d95a4ca6c52f8/library/core/src/fmt/mod.rs:1212
80202ffc: 59 e9        	bnez	a0, 0x80203092 <.LBB197_34+0x12a>
; /rustc/ecd44958e0a21110d09862ee080d95a4ca6c52f8/library/core/src/slice/iter/macros.rs:146
80202ffe: c1 04        	addi	s1, s1, 16
80203000: 13 0a 8a fc  	addi	s4, s4, -56
80203004: 13 04 84 03  	addi	s0, s0, 56
80203008: e3 14 0a f6  	bnez	s4, 0x80202f70 <.LBB197_34+0x8>
8020300c: 81 a8        	j	0x8020305c <.LBB197_34+0xf4>
; /rustc/ecd44958e0a21110d09862ee080d95a4ca6c52f8/library/core/src/fmt/mod.rs:1189
8020300e: 03 b5 89 02  	ld	a0, 40(s3)
; /rustc/ecd44958e0a21110d09862ee080d95a4ca6c52f8/library/core/src/slice/iter/macros.rs:146
80203012: 29 cd        	beqz	a0, 0x8020306c <.LBB197_34+0x104>
; /rustc/ecd44958e0a21110d09862ee080d95a4ca6c52f8/library/core/src/fmt/mod.rs:1189
80203014: 83 b5 09 02  	ld	a1, 32(s3)
80203018: 03 b6 09 00  	ld	a2, 0(s3)
; /rustc/ecd44958e0a21110d09862ee080d95a4ca6c52f8/library/core/src/slice/iter/macros.rs:146
8020301c: 7d 15        	addi	a0, a0, -1
8020301e: 12 05        	slli	a0, a0, 4
80203020: 11 81        	srli	a0, a0, 4
80203022: 13 09 15 00  	addi	s2, a0, 1
80203026: 13 04 86 00  	addi	s0, a2, 8
8020302a: 93 84 85 00  	addi	s1, a1, 8
8020302e: 4a 8a        	mv	s4, s2
; /rustc/ecd44958e0a21110d09862ee080d95a4ca6c52f8/library/core/src/fmt/mod.rs:1193
80203030: 10 60        	ld	a2, 0(s0)
80203032: 01 ca        	beqz	a2, 0x80203042 <.LBB197_34+0xda>
; /rustc/ecd44958e0a21110d09862ee080d95a4ca6c52f8/library/core/src/fmt/mod.rs:1194
80203034: a2 76        	ld	a3, 40(sp)
80203036: 02 75        	ld	a0, 32(sp)
80203038: 83 35 84 ff  	ld	a1, -8(s0)
8020303c: 94 6e        	ld	a3, 24(a3)
8020303e: 82 96        	jalr	a3
80203040: 29 e9        	bnez	a0, 0x80203092 <.LBB197_34+0x12a>
; /rustc/ecd44958e0a21110d09862ee080d95a4ca6c52f8/library/core/src/fmt/mod.rs:1196
80203042: 90 60        	ld	a2, 0(s1)
80203044: 03 b5 84 ff  	ld	a0, -8(s1)
80203048: 8a 85        	mv	a1, sp
8020304a: 02 96        	jalr	a2
8020304c: 39 e1        	bnez	a0, 0x80203092 <.LBB197_34+0x12a>
; /rustc/ecd44958e0a21110d09862ee080d95a4ca6c52f8/library/core/src/slice/iter/macros.rs:146
8020304e: 7d 1a        	addi	s4, s4, -1
80203050: 41 04        	addi	s0, s0, 16
80203052: c1 04        	addi	s1, s1, 16
80203054: e3 1e 0a fc  	bnez	s4, 0x80203030 <.LBB197_34+0xc8>
80203058: 11 a0        	j	0x8020305c <.LBB197_34+0xf4>
8020305a: 01 49        	li	s2, 0
; /rustc/ecd44958e0a21110d09862ee080d95a4ca6c52f8/library/core/src/fmt/mod.rs:1219
8020305c: 03 b5 89 00  	ld	a0, 8(s3)
; /rustc/ecd44958e0a21110d09862ee080d95a4ca6c52f8/library/core/src/slice/index.rs:209
80203060: 63 6b a9 00  	bltu	s2, a0, 0x80203076 <.LBB197_34+0x10e>
80203064: 01 46        	li	a2, 0
; /rustc/ecd44958e0a21110d09862ee080d95a4ca6c52f8/library/core/src/fmt/mod.rs:1219
80203066: 63 6f a9 00  	bltu	s2, a0, 0x80203084 <.LBB197_34+0x11c>
8020306a: 35 a0        	j	0x80203096 <.LBB197_34+0x12e>
8020306c: 01 49        	li	s2, 0
; /rustc/ecd44958e0a21110d09862ee080d95a4ca6c52f8/library/core/src/fmt/mod.rs:1219
8020306e: 03 b5 89 00  	ld	a0, 8(s3)
; /rustc/ecd44958e0a21110d09862ee080d95a4ca6c52f8/library/core/src/slice/index.rs:209
80203072: e3 79 a9 fe  	bgeu	s2, a0, 0x80203064 <.LBB197_34+0xfc>
80203076: 83 b5 09 00  	ld	a1, 0(s3)
8020307a: 13 16 49 00  	slli	a2, s2, 4
8020307e: 2e 96        	add	a2, a2, a1
; /rustc/ecd44958e0a21110d09862ee080d95a4ca6c52f8/library/core/src/fmt/mod.rs:1219
80203080: 63 7b a9 00  	bgeu	s2, a0, 0x80203096 <.LBB197_34+0x12e>
; /rustc/ecd44958e0a21110d09862ee080d95a4ca6c52f8/library/core/src/fmt/mod.rs:1220
80203084: a2 76        	ld	a3, 40(sp)
80203086: 02 75        	ld	a0, 32(sp)
80203088: 0c 62        	ld	a1, 0(a2)
8020308a: 10 66        	ld	a2, 8(a2)
8020308c: 94 6e        	ld	a3, 24(a3)
8020308e: 82 96        	jalr	a3
80203090: 19 c1        	beqz	a0, 0x80203096 <.LBB197_34+0x12e>
80203092: 05 45        	li	a0, 1
80203094: 11 a0        	j	0x80203098 <.LBB197_34+0x130>
80203096: 01 45        	li	a0, 0
; /rustc/ecd44958e0a21110d09862ee080d95a4ca6c52f8/library/core/src/fmt/mod.rs:1224
80203098: e6 70        	ld	ra, 120(sp)
8020309a: 46 74        	ld	s0, 112(sp)
8020309c: a6 74        	ld	s1, 104(sp)
8020309e: 06 79        	ld	s2, 96(sp)
802030a0: e6 69        	ld	s3, 88(sp)
802030a2: 46 6a        	ld	s4, 80(sp)
802030a4: a6 6a        	ld	s5, 72(sp)
802030a6: 06 6b        	ld	s6, 64(sp)
802030a8: 09 61        	addi	sp, sp, 128
802030aa: 82 80        	ret

00000000802030ac <_ZN4core3fmt9Formatter12pad_integral17h64769d41ce1494ccE>:
; _ZN4core3fmt9Formatter12pad_integral17h64769d41ce1494ccE():
; /rustc/ecd44958e0a21110d09862ee080d95a4ca6c52f8/library/core/src/fmt/mod.rs:1348
802030ac: 1d 71        	addi	sp, sp, -96
802030ae: 86 ec        	sd	ra, 88(sp)
802030b0: a2 e8        	sd	s0, 80(sp)
802030b2: a6 e4        	sd	s1, 72(sp)
802030b4: ca e0        	sd	s2, 64(sp)
802030b6: 4e fc        	sd	s3, 56(sp)
802030b8: 52 f8        	sd	s4, 48(sp)
802030ba: 56 f4        	sd	s5, 40(sp)
802030bc: 5a f0        	sd	s6, 32(sp)
802030be: 5e ec        	sd	s7, 24(sp)
802030c0: 62 e8        	sd	s8, 16(sp)
802030c2: 66 e4        	sd	s9, 8(sp)
802030c4: 6a e0        	sd	s10, 0(sp)
802030c6: be 89        	mv	s3, a5
802030c8: 3a 89        	mv	s2, a4
802030ca: 36 8b        	mv	s6, a3
802030cc: b2 8a        	mv	s5, a2
802030ce: 2a 8c        	mv	s8, a0
; /rustc/ecd44958e0a21110d09862ee080d95a4ca6c52f8/library/core/src/fmt/mod.rs:1352
802030d0: b9 c5        	beqz	a1, 0x8020311e <_ZN4core3fmt9Formatter12pad_integral17h64769d41ce1494ccE+0x72>
; /rustc/ecd44958e0a21110d09862ee080d95a4ca6c52f8/library/core/src/fmt/mod.rs:1829
802030d2: 03 65 0c 03  	lwu	a0, 48(s8)
802030d6: 93 75 15 00  	andi	a1, a0, 1
802030da: 37 0a 11 00  	lui	s4, 272
; /rustc/ecd44958e0a21110d09862ee080d95a4ca6c52f8/library/core/src/fmt/mod.rs:1355
802030de: 99 c1        	beqz	a1, 0x802030e4 <_ZN4core3fmt9Formatter12pad_integral17h64769d41ce1494ccE+0x38>
802030e0: 13 0a b0 02  	li	s4, 43
; /rustc/ecd44958e0a21110d09862ee080d95a4ca6c52f8/library/core/src/fmt/mod.rs:1355
802030e4: 33 84 35 01  	add	s0, a1, s3
; /rustc/ecd44958e0a21110d09862ee080d95a4ca6c52f8/library/core/src/fmt/mod.rs:1886
802030e8: 11 89        	andi	a0, a0, 4
; /rustc/ecd44958e0a21110d09862ee080d95a4ca6c52f8/library/core/src/fmt/mod.rs:1360
802030ea: 31 c1        	beqz	a0, 0x8020312e <_ZN4core3fmt9Formatter12pad_integral17h64769d41ce1494ccE+0x82>
802030ec: 13 05 00 02  	li	a0, 32
; /rustc/ecd44958e0a21110d09862ee080d95a4ca6c52f8/library/core/src/str/count.rs:27
802030f0: 63 74 ab 04  	bgeu	s6, a0, 0x80203138 <_ZN4core3fmt9Formatter12pad_integral17h64769d41ce1494ccE+0x8c>
802030f4: 01 45        	li	a0, 0
; /rustc/ecd44958e0a21110d09862ee080d95a4ca6c52f8/library/core/src/slice/iter/macros.rs:146
802030f6: 63 0e 0b 00  	beqz	s6, 0x80203112 <_ZN4core3fmt9Formatter12pad_integral17h64769d41ce1494ccE+0x66>
802030fa: 93 05 f0 fb  	li	a1, -65
802030fe: 5a 86        	mv	a2, s6
80203100: d6 86        	mv	a3, s5
; /rustc/ecd44958e0a21110d09862ee080d95a4ca6c52f8/library/core/src/iter/traits/iterator.rs:2366
80203102: 03 87 06 00  	lb	a4, 0(a3)
; /rustc/ecd44958e0a21110d09862ee080d95a4ca6c52f8/library/core/src/ptr/mut_ptr.rs:467
80203106: 85 06        	addi	a3, a3, 1
; /rustc/ecd44958e0a21110d09862ee080d95a4ca6c52f8/library/core/src/str/validations.rs:25
80203108: 33 a7 e5 00  	slt	a4, a1, a4
; /rustc/ecd44958e0a21110d09862ee080d95a4ca6c52f8/library/core/src/slice/iter/macros.rs:146
8020310c: 7d 16        	addi	a2, a2, -1
; /rustc/ecd44958e0a21110d09862ee080d95a4ca6c52f8/library/core/src/iter/traits/accum.rs:45
8020310e: 3a 95        	add	a0, a0, a4
; /rustc/ecd44958e0a21110d09862ee080d95a4ca6c52f8/library/core/src/slice/iter/macros.rs:146
80203110: 6d fa        	bnez	a2, 0x80203102 <_ZN4core3fmt9Formatter12pad_integral17h64769d41ce1494ccE+0x56>
; /rustc/ecd44958e0a21110d09862ee080d95a4ca6c52f8/library/core/src/fmt/mod.rs:1361
80203112: 2a 94        	add	s0, s0, a0
80203114: d6 8b        	mv	s7, s5
; /rustc/ecd44958e0a21110d09862ee080d95a4ca6c52f8/library/core/src/fmt/mod.rs:1377
80203116: 03 35 0c 00  	ld	a0, 0(s8)
8020311a: 15 e9        	bnez	a0, 0x8020314e <_ZN4core3fmt9Formatter12pad_integral17h64769d41ce1494ccE+0xa2>
8020311c: 95 a0        	j	0x80203180 <_ZN4core3fmt9Formatter12pad_integral17h64769d41ce1494ccE+0xd4>
; /rustc/ecd44958e0a21110d09862ee080d95a4ca6c52f8/library/core/src/fmt/mod.rs:1886
8020311e: 03 25 0c 03  	lw	a0, 48(s8)
; /rustc/ecd44958e0a21110d09862ee080d95a4ca6c52f8/library/core/src/fmt/mod.rs:1354
80203122: 13 84 19 00  	addi	s0, s3, 1
80203126: 13 0a d0 02  	li	s4, 45
; /rustc/ecd44958e0a21110d09862ee080d95a4ca6c52f8/library/core/src/fmt/mod.rs:1886
8020312a: 11 89        	andi	a0, a0, 4
; /rustc/ecd44958e0a21110d09862ee080d95a4ca6c52f8/library/core/src/fmt/mod.rs:1360
8020312c: 61 f1        	bnez	a0, 0x802030ec <_ZN4core3fmt9Formatter12pad_integral17h64769d41ce1494ccE+0x40>
8020312e: 81 4b        	li	s7, 0
; /rustc/ecd44958e0a21110d09862ee080d95a4ca6c52f8/library/core/src/fmt/mod.rs:1377
80203130: 03 35 0c 00  	ld	a0, 0(s8)
80203134: 09 ed        	bnez	a0, 0x8020314e <_ZN4core3fmt9Formatter12pad_integral17h64769d41ce1494ccE+0xa2>
80203136: a9 a0        	j	0x80203180 <_ZN4core3fmt9Formatter12pad_integral17h64769d41ce1494ccE+0xd4>
; /rustc/ecd44958e0a21110d09862ee080d95a4ca6c52f8/library/core/src/str/count.rs:34
80203138: 56 85        	mv	a0, s5
8020313a: da 85        	mv	a1, s6
8020313c: 97 10 00 00  	auipc	ra, 1
80203140: e7 80 60 a2  	jalr	-1498(ra)
; /rustc/ecd44958e0a21110d09862ee080d95a4ca6c52f8/library/core/src/fmt/mod.rs:1361
80203144: 2a 94        	add	s0, s0, a0
80203146: d6 8b        	mv	s7, s5
; /rustc/ecd44958e0a21110d09862ee080d95a4ca6c52f8/library/core/src/fmt/mod.rs:1377
80203148: 03 35 0c 00  	ld	a0, 0(s8)
8020314c: 15 c9        	beqz	a0, 0x80203180 <_ZN4core3fmt9Formatter12pad_integral17h64769d41ce1494ccE+0xd4>
; /rustc/ecd44958e0a21110d09862ee080d95a4ca6c52f8/library/core/src/fmt/mod.rs:1386
8020314e: 83 34 8c 00  	ld	s1, 8(s8)
80203152: 63 77 94 02  	bgeu	s0, s1, 0x80203180 <_ZN4core3fmt9Formatter12pad_integral17h64769d41ce1494ccE+0xd4>
; /rustc/ecd44958e0a21110d09862ee080d95a4ca6c52f8/library/core/src/fmt/mod.rs:1912
80203156: 03 45 0c 03  	lbu	a0, 48(s8)
8020315a: 21 89        	andi	a0, a0, 8
; /rustc/ecd44958e0a21110d09862ee080d95a4ca6c52f8/library/core/src/fmt/mod.rs:1392
8020315c: 35 e1        	bnez	a0, 0x802031c0 <_ZN4core3fmt9Formatter12pad_integral17h64769d41ce1494ccE+0x114>
; /rustc/ecd44958e0a21110d09862ee080d95a4ca6c52f8/library/core/src/fmt/mod.rs:1497
8020315e: 83 45 8c 03  	lbu	a1, 56(s8)
80203162: 0d 46        	li	a2, 3
80203164: 05 45        	li	a0, 1
80203166: 63 83 c5 00  	beq	a1, a2, 0x8020316c <_ZN4core3fmt9Formatter12pad_integral17h64769d41ce1494ccE+0xc0>
8020316a: 2e 85        	mv	a0, a1
; /rustc/ecd44958e0a21110d09862ee080d95a4ca6c52f8/library/core/src/fmt/mod.rs:1502
8020316c: 93 75 35 00  	andi	a1, a0, 3
80203170: 33 85 84 40  	sub	a0, s1, s0
80203174: d9 c9        	beqz	a1, 0x8020320a <_ZN4core3fmt9Formatter12pad_integral17h64769d41ce1494ccE+0x15e>
80203176: 05 46        	li	a2, 1
; /rustc/ecd44958e0a21110d09862ee080d95a4ca6c52f8/library/core/src/fmt/mod.rs:1502
80203178: 63 9c c5 08  	bne	a1, a2, 0x80203210 <_ZN4core3fmt9Formatter12pad_integral17h64769d41ce1494ccE+0x164>
8020317c: 81 4c        	li	s9, 0
8020317e: 71 a8        	j	0x8020321a <_ZN4core3fmt9Formatter12pad_integral17h64769d41ce1494ccE+0x16e>
80203180: 62 85        	mv	a0, s8
80203182: d2 85        	mv	a1, s4
80203184: 5e 86        	mv	a2, s7
80203186: da 86        	mv	a3, s6
80203188: 97 00 00 00  	auipc	ra, 0
8020318c: e7 80 00 1a  	jalr	416(ra)
80203190: 85 4a        	li	s5, 1
80203192: 63 13 05 12  	bnez	a0, 0x802032b8 <_ZN4core3fmt9Formatter12pad_integral17h64769d41ce1494ccE+0x20c>
80203196: 83 35 8c 02  	ld	a1, 40(s8)
8020319a: 03 35 0c 02  	ld	a0, 32(s8)
8020319e: 9c 6d        	ld	a5, 24(a1)
802031a0: ca 85        	mv	a1, s2
802031a2: 4e 86        	mv	a2, s3
802031a4: e6 60        	ld	ra, 88(sp)
802031a6: 46 64        	ld	s0, 80(sp)
802031a8: a6 64        	ld	s1, 72(sp)
802031aa: 06 69        	ld	s2, 64(sp)
802031ac: e2 79        	ld	s3, 56(sp)
802031ae: 42 7a        	ld	s4, 48(sp)
802031b0: a2 7a        	ld	s5, 40(sp)
802031b2: 02 7b        	ld	s6, 32(sp)
802031b4: e2 6b        	ld	s7, 24(sp)
802031b6: 42 6c        	ld	s8, 16(sp)
802031b8: a2 6c        	ld	s9, 8(sp)
802031ba: 02 6d        	ld	s10, 0(sp)
802031bc: 25 61        	addi	sp, sp, 96
802031be: 82 87        	jr	a5
; /rustc/ecd44958e0a21110d09862ee080d95a4ca6c52f8/library/core/src/mem/mod.rs:904
802031c0: 83 2c 4c 03  	lw	s9, 52(s8)
802031c4: 13 05 00 03  	li	a0, 48
802031c8: 03 4d 8c 03  	lbu	s10, 56(s8)
; /rustc/ecd44958e0a21110d09862ee080d95a4ca6c52f8/library/core/src/ptr/mod.rs:1287
802031cc: 23 2a ac 02  	sw	a0, 52(s8)
802031d0: 85 4a        	li	s5, 1
802031d2: 23 0c 5c 03  	sb	s5, 56(s8)
; /rustc/ecd44958e0a21110d09862ee080d95a4ca6c52f8/library/core/src/fmt/mod.rs:1395
802031d6: 62 85        	mv	a0, s8
802031d8: d2 85        	mv	a1, s4
802031da: 5e 86        	mv	a2, s7
802031dc: da 86        	mv	a3, s6
802031de: 97 00 00 00  	auipc	ra, 0
802031e2: e7 80 a0 14  	jalr	330(ra)
802031e6: 69 e9        	bnez	a0, 0x802032b8 <_ZN4core3fmt9Formatter12pad_integral17h64769d41ce1494ccE+0x20c>
; /rustc/ecd44958e0a21110d09862ee080d95a4ca6c52f8/library/core/src/fmt/mod.rs:1497
802031e8: 83 45 8c 03  	lbu	a1, 56(s8)
802031ec: 0d 46        	li	a2, 3
802031ee: 05 45        	li	a0, 1
; /rustc/ecd44958e0a21110d09862ee080d95a4ca6c52f8/library/core/src/fmt/mod.rs:1502
802031f0: 63 83 c5 00  	beq	a1, a2, 0x802031f6 <_ZN4core3fmt9Formatter12pad_integral17h64769d41ce1494ccE+0x14a>
802031f4: 2e 85        	mv	a0, a1
; /rustc/ecd44958e0a21110d09862ee080d95a4ca6c52f8/library/core/src/fmt/mod.rs:1502
802031f6: 93 75 35 00  	andi	a1, a0, 3
802031fa: 33 85 84 40  	sub	a0, s1, s0
; /rustc/ecd44958e0a21110d09862ee080d95a4ca6c52f8/library/core/src/fmt/mod.rs:1502
802031fe: c9 c5        	beqz	a1, 0x80203288 <_ZN4core3fmt9Formatter12pad_integral17h64769d41ce1494ccE+0x1dc>
80203200: 05 46        	li	a2, 1
; /rustc/ecd44958e0a21110d09862ee080d95a4ca6c52f8/library/core/src/fmt/mod.rs:1502
80203202: 63 96 c5 08  	bne	a1, a2, 0x8020328e <_ZN4core3fmt9Formatter12pad_integral17h64769d41ce1494ccE+0x1e2>
80203206: 01 4a        	li	s4, 0
80203208: 41 a8        	j	0x80203298 <_ZN4core3fmt9Formatter12pad_integral17h64769d41ce1494ccE+0x1ec>
8020320a: aa 8c        	mv	s9, a0
8020320c: 01 45        	li	a0, 0
8020320e: 31 a0        	j	0x8020321a <_ZN4core3fmt9Formatter12pad_integral17h64769d41ce1494ccE+0x16e>
; /rustc/ecd44958e0a21110d09862ee080d95a4ca6c52f8/library/core/src/fmt/mod.rs:1505
80203210: 93 05 15 00  	addi	a1, a0, 1
80203214: 05 81        	srli	a0, a0, 1
80203216: 93 dc 15 00  	srli	s9, a1, 1
8020321a: 83 3a 0c 02  	ld	s5, 32(s8)
8020321e: 83 34 8c 02  	ld	s1, 40(s8)
80203222: 03 2d 4c 03  	lw	s10, 52(s8)
; /rustc/ecd44958e0a21110d09862ee080d95a4ca6c52f8/library/core/src/fmt/mod.rs:1508
80203226: 13 04 15 00  	addi	s0, a0, 1
; /rustc/ecd44958e0a21110d09862ee080d95a4ca6c52f8/library/core/src/cmp.rs:1396
8020322a: 7d 14        	addi	s0, s0, -1
; /rustc/ecd44958e0a21110d09862ee080d95a4ca6c52f8/library/core/src/iter/range.rs:621
8020322c: 19 c4        	beqz	s0, 0x8020323a <_ZN4core3fmt9Formatter12pad_integral17h64769d41ce1494ccE+0x18e>
; /rustc/ecd44958e0a21110d09862ee080d95a4ca6c52f8/library/core/src/fmt/mod.rs:1509
8020322e: 90 70        	ld	a2, 32(s1)
80203230: 56 85        	mv	a0, s5
80203232: ea 85        	mv	a1, s10
80203234: 02 96        	jalr	a2
80203236: 75 d9        	beqz	a0, 0x8020322a <_ZN4core3fmt9Formatter12pad_integral17h64769d41ce1494ccE+0x17e>
80203238: bd a8        	j	0x802032b6 <_ZN4core3fmt9Formatter12pad_integral17h64769d41ce1494ccE+0x20a>
8020323a: 37 05 11 00  	lui	a0, 272
8020323e: 85 4a        	li	s5, 1
; /rustc/ecd44958e0a21110d09862ee080d95a4ca6c52f8/library/core/src/fmt/mod.rs:1405
80203240: 63 0c ad 06  	beq	s10, a0, 0x802032b8 <_ZN4core3fmt9Formatter12pad_integral17h64769d41ce1494ccE+0x20c>
; /rustc/ecd44958e0a21110d09862ee080d95a4ca6c52f8/library/core/src/fmt/mod.rs:1406
80203244: 62 85        	mv	a0, s8
80203246: d2 85        	mv	a1, s4
80203248: 5e 86        	mv	a2, s7
8020324a: da 86        	mv	a3, s6
8020324c: 97 00 00 00  	auipc	ra, 0
80203250: e7 80 c0 0d  	jalr	220(ra)
80203254: 35 e1        	bnez	a0, 0x802032b8 <_ZN4core3fmt9Formatter12pad_integral17h64769d41ce1494ccE+0x20c>
; /rustc/ecd44958e0a21110d09862ee080d95a4ca6c52f8/library/core/src/fmt/mod.rs:1407
80203256: 83 35 8c 02  	ld	a1, 40(s8)
8020325a: 03 35 0c 02  	ld	a0, 32(s8)
8020325e: 94 6d        	ld	a3, 24(a1)
80203260: ca 85        	mv	a1, s2
80203262: 4e 86        	mv	a2, s3
80203264: 82 96        	jalr	a3
80203266: 29 e9        	bnez	a0, 0x802032b8 <_ZN4core3fmt9Formatter12pad_integral17h64769d41ce1494ccE+0x20c>
80203268: 03 39 0c 02  	ld	s2, 32(s8)
8020326c: 83 34 8c 02  	ld	s1, 40(s8)
80203270: 01 44        	li	s0, 0
80203272: 63 87 8c 0a  	beq	s9, s0, 0x80203320 <_ZN4core3fmt9Formatter12pad_integral17h64769d41ce1494ccE+0x274>
; /rustc/ecd44958e0a21110d09862ee080d95a4ca6c52f8/library/core/src/fmt/mod.rs:1275
80203276: 90 70        	ld	a2, 32(s1)
; /rustc/ecd44958e0a21110d09862ee080d95a4ca6c52f8/library/core/src/num/uint_macros.rs:464
80203278: 05 04        	addi	s0, s0, 1
; /rustc/ecd44958e0a21110d09862ee080d95a4ca6c52f8/library/core/src/fmt/mod.rs:1275
8020327a: 4a 85        	mv	a0, s2
8020327c: ea 85        	mv	a1, s10
8020327e: 02 96        	jalr	a2
80203280: 6d d9        	beqz	a0, 0x80203272 <_ZN4core3fmt9Formatter12pad_integral17h64769d41ce1494ccE+0x1c6>
80203282: 13 05 f4 ff  	addi	a0, s0, -1
80203286: 71 a8        	j	0x80203322 <_ZN4core3fmt9Formatter12pad_integral17h64769d41ce1494ccE+0x276>
80203288: 2a 8a        	mv	s4, a0
8020328a: 01 45        	li	a0, 0
8020328c: 31 a0        	j	0x80203298 <_ZN4core3fmt9Formatter12pad_integral17h64769d41ce1494ccE+0x1ec>
; /rustc/ecd44958e0a21110d09862ee080d95a4ca6c52f8/library/core/src/fmt/mod.rs:1505
8020328e: 93 05 15 00  	addi	a1, a0, 1
80203292: 05 81        	srli	a0, a0, 1
80203294: 13 da 15 00  	srli	s4, a1, 1
80203298: 83 3a 0c 02  	ld	s5, 32(s8)
8020329c: 83 34 8c 02  	ld	s1, 40(s8)
802032a0: 03 2b 4c 03  	lw	s6, 52(s8)
; /rustc/ecd44958e0a21110d09862ee080d95a4ca6c52f8/library/core/src/fmt/mod.rs:1508
802032a4: 13 04 15 00  	addi	s0, a0, 1
; /rustc/ecd44958e0a21110d09862ee080d95a4ca6c52f8/library/core/src/cmp.rs:1396
802032a8: 7d 14        	addi	s0, s0, -1
; /rustc/ecd44958e0a21110d09862ee080d95a4ca6c52f8/library/core/src/iter/range.rs:621
802032aa: 15 c4        	beqz	s0, 0x802032d6 <_ZN4core3fmt9Formatter12pad_integral17h64769d41ce1494ccE+0x22a>
; /rustc/ecd44958e0a21110d09862ee080d95a4ca6c52f8/library/core/src/fmt/mod.rs:1509
802032ac: 90 70        	ld	a2, 32(s1)
802032ae: 56 85        	mv	a0, s5
802032b0: da 85        	mv	a1, s6
802032b2: 02 96        	jalr	a2
802032b4: 75 d9        	beqz	a0, 0x802032a8 <_ZN4core3fmt9Formatter12pad_integral17h64769d41ce1494ccE+0x1fc>
802032b6: 85 4a        	li	s5, 1
; /rustc/ecd44958e0a21110d09862ee080d95a4ca6c52f8/library/core/src/fmt/mod.rs:1411
802032b8: 56 85        	mv	a0, s5
802032ba: e6 60        	ld	ra, 88(sp)
802032bc: 46 64        	ld	s0, 80(sp)
802032be: a6 64        	ld	s1, 72(sp)
802032c0: 06 69        	ld	s2, 64(sp)
802032c2: e2 79        	ld	s3, 56(sp)
802032c4: 42 7a        	ld	s4, 48(sp)
802032c6: a2 7a        	ld	s5, 40(sp)
802032c8: 02 7b        	ld	s6, 32(sp)
802032ca: e2 6b        	ld	s7, 24(sp)
802032cc: 42 6c        	ld	s8, 16(sp)
802032ce: a2 6c        	ld	s9, 8(sp)
802032d0: 02 6d        	ld	s10, 0(sp)
802032d2: 25 61        	addi	sp, sp, 96
802032d4: 82 80        	ret
802032d6: 37 05 11 00  	lui	a0, 272
802032da: 85 4a        	li	s5, 1
; /rustc/ecd44958e0a21110d09862ee080d95a4ca6c52f8/library/core/src/fmt/mod.rs:1396
802032dc: e3 0e ab fc  	beq	s6, a0, 0x802032b8 <_ZN4core3fmt9Formatter12pad_integral17h64769d41ce1494ccE+0x20c>
; /rustc/ecd44958e0a21110d09862ee080d95a4ca6c52f8/library/core/src/fmt/mod.rs:1397
802032e0: 83 35 8c 02  	ld	a1, 40(s8)
802032e4: 03 35 0c 02  	ld	a0, 32(s8)
802032e8: 94 6d        	ld	a3, 24(a1)
802032ea: ca 85        	mv	a1, s2
802032ec: 4e 86        	mv	a2, s3
802032ee: 82 96        	jalr	a3
802032f0: 61 f5        	bnez	a0, 0x802032b8 <_ZN4core3fmt9Formatter12pad_integral17h64769d41ce1494ccE+0x20c>
802032f2: 03 39 0c 02  	ld	s2, 32(s8)
802032f6: 83 34 8c 02  	ld	s1, 40(s8)
802032fa: 01 44        	li	s0, 0
; /rustc/ecd44958e0a21110d09862ee080d95a4ca6c52f8/library/core/src/iter/range.rs:621
802032fc: 63 0c 8a 00  	beq	s4, s0, 0x80203314 <_ZN4core3fmt9Formatter12pad_integral17h64769d41ce1494ccE+0x268>
; /rustc/ecd44958e0a21110d09862ee080d95a4ca6c52f8/library/core/src/fmt/mod.rs:1275
80203300: 90 70        	ld	a2, 32(s1)
; /rustc/ecd44958e0a21110d09862ee080d95a4ca6c52f8/library/core/src/num/uint_macros.rs:464
80203302: 05 04        	addi	s0, s0, 1
; /rustc/ecd44958e0a21110d09862ee080d95a4ca6c52f8/library/core/src/fmt/mod.rs:1275
80203304: 4a 85        	mv	a0, s2
80203306: da 85        	mv	a1, s6
80203308: 02 96        	jalr	a2
8020330a: 6d d9        	beqz	a0, 0x802032fc <_ZN4core3fmt9Formatter12pad_integral17h64769d41ce1494ccE+0x250>
; /rustc/ecd44958e0a21110d09862ee080d95a4ca6c52f8/library/core/src/cmp.rs:1396
8020330c: 13 05 f4 ff  	addi	a0, s0, -1
; /rustc/ecd44958e0a21110d09862ee080d95a4ca6c52f8/library/core/src/fmt/mod.rs:1398
80203310: e3 64 45 fb  	bltu	a0, s4, 0x802032b8 <_ZN4core3fmt9Formatter12pad_integral17h64769d41ce1494ccE+0x20c>
80203314: 81 4a        	li	s5, 0
; /rustc/ecd44958e0a21110d09862ee080d95a4ca6c52f8/library/core/src/fmt/mod.rs:1399
80203316: 23 2a 9c 03  	sw	s9, 52(s8)
; /rustc/ecd44958e0a21110d09862ee080d95a4ca6c52f8/library/core/src/fmt/mod.rs:1400
8020331a: 23 0c ac 03  	sb	s10, 56(s8)
8020331e: 69 bf        	j	0x802032b8 <_ZN4core3fmt9Formatter12pad_integral17h64769d41ce1494ccE+0x20c>
80203320: 66 85        	mv	a0, s9
; /rustc/ecd44958e0a21110d09862ee080d95a4ca6c52f8/library/core/src/cmp.rs:1396
80203322: b3 3a 95 01  	sltu	s5, a0, s9
80203326: 49 bf        	j	0x802032b8 <_ZN4core3fmt9Formatter12pad_integral17h64769d41ce1494ccE+0x20c>

0000000080203328 <_ZN4core3fmt9Formatter12pad_integral12write_prefix17h3c033e9074d641b0E>:
; _ZN4core3fmt9Formatter12pad_integral12write_prefix17h3c033e9074d641b0E():
; /rustc/ecd44958e0a21110d09862ee080d95a4ca6c52f8/library/core/src/fmt/mod.rs:1369
80203328: 01 11        	addi	sp, sp, -32
8020332a: 06 ec        	sd	ra, 24(sp)
8020332c: 22 e8        	sd	s0, 16(sp)
8020332e: 26 e4        	sd	s1, 8(sp)
80203330: 4a e0        	sd	s2, 0(sp)
80203332: 1b 87 05 00  	sext.w	a4, a1
80203336: b7 07 11 00  	lui	a5, 272
8020333a: 36 89        	mv	s2, a3
8020333c: b2 84        	mv	s1, a2
8020333e: 2a 84        	mv	s0, a0
; /rustc/ecd44958e0a21110d09862ee080d95a4ca6c52f8/library/core/src/fmt/mod.rs:1370
80203340: 63 09 f7 00  	beq	a4, a5, 0x80203352 <_ZN4core3fmt9Formatter12pad_integral12write_prefix17h3c033e9074d641b0E+0x2a>
; /rustc/ecd44958e0a21110d09862ee080d95a4ca6c52f8/library/core/src/fmt/mod.rs:1371
80203344: 10 74        	ld	a2, 40(s0)
80203346: 08 70        	ld	a0, 32(s0)
80203348: 10 72        	ld	a2, 32(a2)
8020334a: 02 96        	jalr	a2
8020334c: aa 85        	mv	a1, a0
8020334e: 05 45        	li	a0, 1
80203350: 91 ed        	bnez	a1, 0x8020336c <_ZN4core3fmt9Formatter12pad_integral12write_prefix17h3c033e9074d641b0E+0x44>
; /rustc/ecd44958e0a21110d09862ee080d95a4ca6c52f8/library/core/src/fmt/mod.rs:1373
80203352: 81 cc        	beqz	s1, 0x8020336a <_ZN4core3fmt9Formatter12pad_integral12write_prefix17h3c033e9074d641b0E+0x42>
80203354: 0c 74        	ld	a1, 40(s0)
80203356: 08 70        	ld	a0, 32(s0)
80203358: 9c 6d        	ld	a5, 24(a1)
8020335a: a6 85        	mv	a1, s1
8020335c: 4a 86        	mv	a2, s2
8020335e: e2 60        	ld	ra, 24(sp)
80203360: 42 64        	ld	s0, 16(sp)
80203362: a2 64        	ld	s1, 8(sp)
80203364: 02 69        	ld	s2, 0(sp)
80203366: 05 61        	addi	sp, sp, 32
80203368: 82 87        	jr	a5
8020336a: 01 45        	li	a0, 0
; /rustc/ecd44958e0a21110d09862ee080d95a4ca6c52f8/library/core/src/fmt/mod.rs:1374
8020336c: e2 60        	ld	ra, 24(sp)
8020336e: 42 64        	ld	s0, 16(sp)
80203370: a2 64        	ld	s1, 8(sp)
80203372: 02 69        	ld	s2, 0(sp)
80203374: 05 61        	addi	sp, sp, 32
80203376: 82 80        	ret

0000000080203378 <_ZN4core3fmt9Formatter3pad17h51646851544023f7E>:
; _ZN4core3fmt9Formatter3pad17h51646851544023f7E():
; /rustc/ecd44958e0a21110d09862ee080d95a4ca6c52f8/library/core/src/fmt/mod.rs:1442
80203378: 5d 71        	addi	sp, sp, -80
8020337a: 86 e4        	sd	ra, 72(sp)
8020337c: a2 e0        	sd	s0, 64(sp)
8020337e: 26 fc        	sd	s1, 56(sp)
80203380: 4a f8        	sd	s2, 48(sp)
80203382: 4e f4        	sd	s3, 40(sp)
80203384: 52 f0        	sd	s4, 32(sp)
80203386: 56 ec        	sd	s5, 24(sp)
80203388: 5a e8        	sd	s6, 16(sp)
8020338a: 5e e4        	sd	s7, 8(sp)
8020338c: aa 84        	mv	s1, a0
; /rustc/ecd44958e0a21110d09862ee080d95a4ca6c52f8/library/core/src/fmt/mod.rs:1444
8020338e: 03 33 05 00  	ld	t1, 0(a0)
80203392: 14 69        	ld	a3, 16(a0)
; /rustc/ecd44958e0a21110d09862ee080d95a4ca6c52f8/library/core/src/option.rs:554
80203394: 13 07 f3 ff  	addi	a4, t1, -1
80203398: 33 37 e0 00  	snez	a4, a4
8020339c: 93 87 f6 ff  	addi	a5, a3, -1
802033a0: b3 37 f0 00  	snez	a5, a5
; /rustc/ecd44958e0a21110d09862ee080d95a4ca6c52f8/library/core/src/fmt/mod.rs:1444
802033a4: 7d 8f        	and	a4, a4, a5
802033a6: b2 89        	mv	s3, a2
802033a8: 2e 89        	mv	s2, a1
802033aa: 63 1b 07 16  	bnez	a4, 0x80203520 <_ZN4core3fmt9Formatter3pad17h51646851544023f7E+0x1a8>
802033ae: 85 45        	li	a1, 1
; /rustc/ecd44958e0a21110d09862ee080d95a4ca6c52f8/library/core/src/fmt/mod.rs:1449
802033b0: 63 97 b6 10  	bne	a3, a1, 0x802034be <_ZN4core3fmt9Formatter3pad17h51646851544023f7E+0x146>
802033b4: 94 6c        	ld	a3, 24(s1)
; /rustc/ecd44958e0a21110d09862ee080d95a4ca6c52f8/library/core/src/ptr/const_ptr.rs:455
802033b6: 33 06 39 01  	add	a2, s2, s3
802033ba: 81 45        	li	a1, 0
; /rustc/ecd44958e0a21110d09862ee080d95a4ca6c52f8/library/core/src/iter/range.rs:621
802033bc: a5 ce        	beqz	a3, 0x80203434 <_ZN4core3fmt9Formatter3pad17h51646851544023f7E+0xbc>
802033be: 93 02 00 0e  	li	t0, 224
802033c2: 93 08 00 0f  	li	a7, 240
802033c6: 37 08 11 00  	lui	a6, 272
802033ca: 4a 84        	mv	s0, s2
802033cc: 11 a8        	j	0x802033e0 <_ZN4core3fmt9Formatter3pad17h51646851544023f7E+0x68>
802033ce: 93 07 14 00  	addi	a5, s0, 1
; /rustc/ecd44958e0a21110d09862ee080d95a4ca6c52f8/library/core/src/str/iter.rs:145
802033d2: 33 85 85 40  	sub	a0, a1, s0
; /rustc/ecd44958e0a21110d09862ee080d95a4ca6c52f8/library/core/src/cmp.rs:1396
802033d6: fd 16        	addi	a3, a3, -1
; /rustc/ecd44958e0a21110d09862ee080d95a4ca6c52f8/library/core/src/str/iter.rs:145
802033d8: b3 05 f5 00  	add	a1, a0, a5
802033dc: 3e 84        	mv	s0, a5
; /rustc/ecd44958e0a21110d09862ee080d95a4ca6c52f8/library/core/src/iter/range.rs:621
802033de: a1 ce        	beqz	a3, 0x80203436 <_ZN4core3fmt9Formatter3pad17h51646851544023f7E+0xbe>
; /rustc/ecd44958e0a21110d09862ee080d95a4ca6c52f8/library/core/src/slice/iter/macros.rs:146
802033e0: 63 0f c4 0c  	beq	s0, a2, 0x802034be <_ZN4core3fmt9Formatter3pad17h51646851544023f7E+0x146>
; /rustc/ecd44958e0a21110d09862ee080d95a4ca6c52f8/library/core/src/str/validations.rs:38
802033e4: 83 07 04 00  	lb	a5, 0(s0)
; /rustc/ecd44958e0a21110d09862ee080d95a4ca6c52f8/library/core/src/str/validations.rs:39
802033e8: e3 d3 07 fe  	bgez	a5, 0x802033ce <_ZN4core3fmt9Formatter3pad17h51646851544023f7E+0x56>
802033ec: 93 f7 f7 0f  	andi	a5, a5, 255
; /rustc/ecd44958e0a21110d09862ee080d95a4ca6c52f8/library/core/src/str/validations.rs:51
802033f0: 63 ec 57 02  	bltu	a5, t0, 0x80203428 <_ZN4core3fmt9Formatter3pad17h51646851544023f7E+0xb0>
; /rustc/ecd44958e0a21110d09862ee080d95a4ca6c52f8/library/core/src/str/validations.rs:59
802033f4: 63 ed 17 03  	bltu	a5, a7, 0x8020342e <_ZN4core3fmt9Formatter3pad17h51646851544023f7E+0xb6>
802033f8: 03 47 14 00  	lbu	a4, 1(s0)
; /rustc/ecd44958e0a21110d09862ee080d95a4ca6c52f8/library/core/src/str/validations.rs:56
802033fc: 03 45 24 00  	lbu	a0, 2(s0)
; /rustc/ecd44958e0a21110d09862ee080d95a4ca6c52f8/library/core/src/str/validations.rs:18
80203400: 13 77 f7 03  	andi	a4, a4, 63
80203404: 13 75 f5 03  	andi	a0, a0, 63
; /rustc/ecd44958e0a21110d09862ee080d95a4ca6c52f8/library/core/src/str/validations.rs:64
80203408: 83 43 34 00  	lbu	t2, 3(s0)
; /rustc/ecd44958e0a21110d09862ee080d95a4ca6c52f8/library/core/src/str/validations.rs:65
8020340c: f6 17        	slli	a5, a5, 61
8020340e: ad 93        	srli	a5, a5, 43
; /rustc/ecd44958e0a21110d09862ee080d95a4ca6c52f8/library/core/src/str/validations.rs:18
80203410: 32 07        	slli	a4, a4, 12
80203412: 1a 05        	slli	a0, a0, 6
80203414: 59 8d        	or	a0, a0, a4
80203416: 13 f7 f3 03  	andi	a4, t2, 63
8020341a: 59 8d        	or	a0, a0, a4
; /rustc/ecd44958e0a21110d09862ee080d95a4ca6c52f8/library/core/src/str/validations.rs:65
8020341c: 5d 8d        	or	a0, a0, a5
; /rustc/ecd44958e0a21110d09862ee080d95a4ca6c52f8/library/core/src/str/iter.rs:140
8020341e: 63 00 05 0b  	beq	a0, a6, 0x802034be <_ZN4core3fmt9Formatter3pad17h51646851544023f7E+0x146>
80203422: 93 07 44 00  	addi	a5, s0, 4
80203426: 75 b7        	j	0x802033d2 <_ZN4core3fmt9Formatter3pad17h51646851544023f7E+0x5a>
80203428: 93 07 24 00  	addi	a5, s0, 2
8020342c: 5d b7        	j	0x802033d2 <_ZN4core3fmt9Formatter3pad17h51646851544023f7E+0x5a>
8020342e: 93 07 34 00  	addi	a5, s0, 3
80203432: 45 b7        	j	0x802033d2 <_ZN4core3fmt9Formatter3pad17h51646851544023f7E+0x5a>
80203434: ca 87        	mv	a5, s2
; /rustc/ecd44958e0a21110d09862ee080d95a4ca6c52f8/library/core/src/slice/iter/macros.rs:146
80203436: 63 84 c7 08  	beq	a5, a2, 0x802034be <_ZN4core3fmt9Formatter3pad17h51646851544023f7E+0x146>
; /rustc/ecd44958e0a21110d09862ee080d95a4ca6c52f8/library/core/src/str/validations.rs:38
8020343a: 03 86 07 00  	lb	a2, 0(a5)
; /rustc/ecd44958e0a21110d09862ee080d95a4ca6c52f8/library/core/src/str/validations.rs:39
8020343e: 63 53 06 04  	bgez	a2, 0x80203484 <_ZN4core3fmt9Formatter3pad17h51646851544023f7E+0x10c>
80203442: 13 76 f6 0f  	andi	a2, a2, 255
80203446: 13 05 00 0e  	li	a0, 224
; /rustc/ecd44958e0a21110d09862ee080d95a4ca6c52f8/library/core/src/str/validations.rs:51
8020344a: 63 6d a6 02  	bltu	a2, a0, 0x80203484 <_ZN4core3fmt9Formatter3pad17h51646851544023f7E+0x10c>
8020344e: 13 05 00 0f  	li	a0, 240
; /rustc/ecd44958e0a21110d09862ee080d95a4ca6c52f8/library/core/src/str/validations.rs:59
80203452: 63 69 a6 02  	bltu	a2, a0, 0x80203484 <_ZN4core3fmt9Formatter3pad17h51646851544023f7E+0x10c>
80203456: 03 c5 17 00  	lbu	a0, 1(a5)
; /rustc/ecd44958e0a21110d09862ee080d95a4ca6c52f8/library/core/src/str/validations.rs:56
8020345a: 83 c6 27 00  	lbu	a3, 2(a5)
; /rustc/ecd44958e0a21110d09862ee080d95a4ca6c52f8/library/core/src/str/validations.rs:18
8020345e: 13 75 f5 03  	andi	a0, a0, 63
80203462: 93 f6 f6 03  	andi	a3, a3, 63
; /rustc/ecd44958e0a21110d09862ee080d95a4ca6c52f8/library/core/src/str/validations.rs:64
80203466: 03 c7 37 00  	lbu	a4, 3(a5)
; /rustc/ecd44958e0a21110d09862ee080d95a4ca6c52f8/library/core/src/str/validations.rs:65
8020346a: 76 16        	slli	a2, a2, 61
8020346c: 2d 92        	srli	a2, a2, 43
; /rustc/ecd44958e0a21110d09862ee080d95a4ca6c52f8/library/core/src/str/validations.rs:18
8020346e: 32 05        	slli	a0, a0, 12
80203470: 9a 06        	slli	a3, a3, 6
80203472: 55 8d        	or	a0, a0, a3
80203474: 93 76 f7 03  	andi	a3, a4, 63
80203478: 55 8d        	or	a0, a0, a3
; /rustc/ecd44958e0a21110d09862ee080d95a4ca6c52f8/library/core/src/str/validations.rs:65
8020347a: 51 8d        	or	a0, a0, a2
8020347c: 37 06 11 00  	lui	a2, 272
; /rustc/ecd44958e0a21110d09862ee080d95a4ca6c52f8/library/core/src/str/iter.rs:140
80203480: 63 0f c5 02  	beq	a0, a2, 0x802034be <_ZN4core3fmt9Formatter3pad17h51646851544023f7E+0x146>
; /rustc/ecd44958e0a21110d09862ee080d95a4ca6c52f8/library/core/src/str/mod.rs:214
80203484: 85 c1        	beqz	a1, 0x802034a4 <_ZN4core3fmt9Formatter3pad17h51646851544023f7E+0x12c>
; /rustc/ecd44958e0a21110d09862ee080d95a4ca6c52f8/library/core/src/str/mod.rs:218
80203486: 63 f4 35 03  	bgeu	a1, s3, 0x802034ae <_ZN4core3fmt9Formatter3pad17h51646851544023f7E+0x136>
8020348a: 33 05 b9 00  	add	a0, s2, a1
; /rustc/ecd44958e0a21110d09862ee080d95a4ca6c52f8/library/core/src/str/mod.rs:230
8020348e: 03 05 05 00  	lb	a0, 0(a0)
80203492: 13 06 00 fc  	li	a2, -64
; /rustc/ecd44958e0a21110d09862ee080d95a4ca6c52f8/library/core/src/str/traits.rs:259
80203496: 63 47 c5 10  	blt	a0, a2, 0x802035a4 <_ZN4core3fmt9Formatter3pad17h51646851544023f7E+0x22c>
8020349a: 2e 86        	mv	a2, a1
8020349c: b2 85        	mv	a1, a2
8020349e: 4a 86        	mv	a2, s2
; /rustc/ecd44958e0a21110d09862ee080d95a4ca6c52f8/library/core/src/option.rs:780
802034a0: 19 ce        	beqz	a2, 0x802034be <_ZN4core3fmt9Formatter3pad17h51646851544023f7E+0x146>
802034a2: 21 a8        	j	0x802034ba <_ZN4core3fmt9Formatter3pad17h51646851544023f7E+0x142>
802034a4: 01 46        	li	a2, 0
802034a6: b2 85        	mv	a1, a2
802034a8: 4a 86        	mv	a2, s2
; /rustc/ecd44958e0a21110d09862ee080d95a4ca6c52f8/library/core/src/option.rs:780
802034aa: 11 ca        	beqz	a2, 0x802034be <_ZN4core3fmt9Formatter3pad17h51646851544023f7E+0x146>
802034ac: 39 a0        	j	0x802034ba <_ZN4core3fmt9Formatter3pad17h51646851544023f7E+0x142>
802034ae: 4e 86        	mv	a2, s3
; /rustc/ecd44958e0a21110d09862ee080d95a4ca6c52f8/library/core/src/str/traits.rs:259
802034b0: 63 9a 35 0f  	bne	a1, s3, 0x802035a4 <_ZN4core3fmt9Formatter3pad17h51646851544023f7E+0x22c>
802034b4: b2 85        	mv	a1, a2
802034b6: 4a 86        	mv	a2, s2
; /rustc/ecd44958e0a21110d09862ee080d95a4ca6c52f8/library/core/src/option.rs:780
802034b8: 19 c2        	beqz	a2, 0x802034be <_ZN4core3fmt9Formatter3pad17h51646851544023f7E+0x146>
802034ba: 32 89        	mv	s2, a2
802034bc: ae 89        	mv	s3, a1
; /rustc/ecd44958e0a21110d09862ee080d95a4ca6c52f8/library/core/src/fmt/mod.rs:1466
802034be: 63 01 03 06  	beqz	t1, 0x80203520 <_ZN4core3fmt9Formatter3pad17h51646851544023f7E+0x1a8>
; /rustc/ecd44958e0a21110d09862ee080d95a4ca6c52f8/library/core/src/fmt/mod.rs:1470
802034c2: 80 64        	ld	s0, 8(s1)
802034c4: 13 05 00 02  	li	a0, 32
; /rustc/ecd44958e0a21110d09862ee080d95a4ca6c52f8/library/core/src/str/count.rs:27
802034c8: 63 f4 a9 04  	bgeu	s3, a0, 0x80203510 <_ZN4core3fmt9Formatter3pad17h51646851544023f7E+0x198>
802034cc: 01 45        	li	a0, 0
; /rustc/ecd44958e0a21110d09862ee080d95a4ca6c52f8/library/core/src/slice/iter/macros.rs:146
802034ce: 63 8e 09 00  	beqz	s3, 0x802034ea <_ZN4core3fmt9Formatter3pad17h51646851544023f7E+0x172>
802034d2: 93 05 f0 fb  	li	a1, -65
802034d6: 4e 86        	mv	a2, s3
802034d8: ca 86        	mv	a3, s2
; /rustc/ecd44958e0a21110d09862ee080d95a4ca6c52f8/library/core/src/iter/traits/iterator.rs:2366
802034da: 03 87 06 00  	lb	a4, 0(a3)
; /rustc/ecd44958e0a21110d09862ee080d95a4ca6c52f8/library/core/src/ptr/mut_ptr.rs:467
802034de: 85 06        	addi	a3, a3, 1
; /rustc/ecd44958e0a21110d09862ee080d95a4ca6c52f8/library/core/src/str/validations.rs:25
802034e0: 33 a7 e5 00  	slt	a4, a1, a4
; /rustc/ecd44958e0a21110d09862ee080d95a4ca6c52f8/library/core/src/slice/iter/macros.rs:146
802034e4: 7d 16        	addi	a2, a2, -1
; /rustc/ecd44958e0a21110d09862ee080d95a4ca6c52f8/library/core/src/iter/traits/accum.rs:45
802034e6: 3a 95        	add	a0, a0, a4
; /rustc/ecd44958e0a21110d09862ee080d95a4ca6c52f8/library/core/src/slice/iter/macros.rs:146
802034e8: 6d fa        	bnez	a2, 0x802034da <_ZN4core3fmt9Formatter3pad17h51646851544023f7E+0x162>
; /rustc/ecd44958e0a21110d09862ee080d95a4ca6c52f8/library/core/src/fmt/mod.rs:1474
802034ea: 63 7b 85 02  	bgeu	a0, s0, 0x80203520 <_ZN4core3fmt9Formatter3pad17h51646851544023f7E+0x1a8>
; /rustc/ecd44958e0a21110d09862ee080d95a4ca6c52f8/library/core/src/fmt/mod.rs:1497
802034ee: 83 c5 84 03  	lbu	a1, 56(s1)
802034f2: 8d 46        	li	a3, 3
802034f4: 01 46        	li	a2, 0
; /rustc/ecd44958e0a21110d09862ee080d95a4ca6c52f8/library/core/src/fmt/mod.rs:1502
802034f6: 63 83 d5 00  	beq	a1, a3, 0x802034fc <_ZN4core3fmt9Formatter3pad17h51646851544023f7E+0x184>
802034fa: 2e 86        	mv	a2, a1
; /rustc/ecd44958e0a21110d09862ee080d95a4ca6c52f8/library/core/src/fmt/mod.rs:1502
802034fc: 93 75 36 00  	andi	a1, a2, 3
80203500: 33 05 a4 40  	sub	a0, s0, a0
; /rustc/ecd44958e0a21110d09862ee080d95a4ca6c52f8/library/core/src/fmt/mod.rs:1502
80203504: 95 cd        	beqz	a1, 0x80203540 <_ZN4core3fmt9Formatter3pad17h51646851544023f7E+0x1c8>
80203506: 05 46        	li	a2, 1
; /rustc/ecd44958e0a21110d09862ee080d95a4ca6c52f8/library/core/src/fmt/mod.rs:1502
80203508: 63 9f c5 02  	bne	a1, a2, 0x80203546 <_ZN4core3fmt9Formatter3pad17h51646851544023f7E+0x1ce>
8020350c: 81 4a        	li	s5, 0
8020350e: 89 a0        	j	0x80203550 <_ZN4core3fmt9Formatter3pad17h51646851544023f7E+0x1d8>
; /rustc/ecd44958e0a21110d09862ee080d95a4ca6c52f8/library/core/src/str/count.rs:34
80203510: 4a 85        	mv	a0, s2
80203512: ce 85        	mv	a1, s3
80203514: 97 00 00 00  	auipc	ra, 0
80203518: e7 80 e0 64  	jalr	1614(ra)
; /rustc/ecd44958e0a21110d09862ee080d95a4ca6c52f8/library/core/src/fmt/mod.rs:1474
8020351c: e3 69 85 fc  	bltu	a0, s0, 0x802034ee <_ZN4core3fmt9Formatter3pad17h51646851544023f7E+0x176>
80203520: 8c 74        	ld	a1, 40(s1)
80203522: 88 70        	ld	a0, 32(s1)
80203524: 9c 6d        	ld	a5, 24(a1)
80203526: ca 85        	mv	a1, s2
80203528: 4e 86        	mv	a2, s3
8020352a: a6 60        	ld	ra, 72(sp)
8020352c: 06 64        	ld	s0, 64(sp)
8020352e: e2 74        	ld	s1, 56(sp)
80203530: 42 79        	ld	s2, 48(sp)
80203532: a2 79        	ld	s3, 40(sp)
80203534: 02 7a        	ld	s4, 32(sp)
80203536: e2 6a        	ld	s5, 24(sp)
80203538: 42 6b        	ld	s6, 16(sp)
8020353a: a2 6b        	ld	s7, 8(sp)
8020353c: 61 61        	addi	sp, sp, 80
8020353e: 82 87        	jr	a5
80203540: aa 8a        	mv	s5, a0
80203542: 01 45        	li	a0, 0
80203544: 31 a0        	j	0x80203550 <_ZN4core3fmt9Formatter3pad17h51646851544023f7E+0x1d8>
; /rustc/ecd44958e0a21110d09862ee080d95a4ca6c52f8/library/core/src/fmt/mod.rs:1505
80203546: 93 05 15 00  	addi	a1, a0, 1
8020354a: 05 81        	srli	a0, a0, 1
8020354c: 93 da 15 00  	srli	s5, a1, 1
80203550: 03 bb 04 02  	ld	s6, 32(s1)
80203554: 83 bb 84 02  	ld	s7, 40(s1)
80203558: c4 58        	lw	s1, 52(s1)
; /rustc/ecd44958e0a21110d09862ee080d95a4ca6c52f8/library/core/src/fmt/mod.rs:1508
8020355a: 13 04 15 00  	addi	s0, a0, 1
; /rustc/ecd44958e0a21110d09862ee080d95a4ca6c52f8/library/core/src/cmp.rs:1396
8020355e: 7d 14        	addi	s0, s0, -1
; /rustc/ecd44958e0a21110d09862ee080d95a4ca6c52f8/library/core/src/iter/range.rs:621
80203560: 09 c8        	beqz	s0, 0x80203572 <_ZN4core3fmt9Formatter3pad17h51646851544023f7E+0x1fa>
; /rustc/ecd44958e0a21110d09862ee080d95a4ca6c52f8/library/core/src/fmt/mod.rs:1509
80203562: 03 b6 0b 02  	ld	a2, 32(s7)
80203566: 5a 85        	mv	a0, s6
80203568: a6 85        	mv	a1, s1
8020356a: 02 96        	jalr	a2
8020356c: 6d d9        	beqz	a0, 0x8020355e <_ZN4core3fmt9Formatter3pad17h51646851544023f7E+0x1e6>
8020356e: 05 4a        	li	s4, 1
80203570: 81 a0        	j	0x802035b0 <_ZN4core3fmt9Formatter3pad17h51646851544023f7E+0x238>
80203572: 37 05 11 00  	lui	a0, 272
80203576: 05 4a        	li	s4, 1
; /rustc/ecd44958e0a21110d09862ee080d95a4ca6c52f8/library/core/src/fmt/mod.rs:1481
80203578: 63 8c a4 02  	beq	s1, a0, 0x802035b0 <_ZN4core3fmt9Formatter3pad17h51646851544023f7E+0x238>
; /rustc/ecd44958e0a21110d09862ee080d95a4ca6c52f8/library/core/src/fmt/mod.rs:1482
8020357c: 83 b6 8b 01  	ld	a3, 24(s7)
80203580: 5a 85        	mv	a0, s6
80203582: ca 85        	mv	a1, s2
80203584: 4e 86        	mv	a2, s3
80203586: 82 96        	jalr	a3
80203588: 05 e5        	bnez	a0, 0x802035b0 <_ZN4core3fmt9Formatter3pad17h51646851544023f7E+0x238>
8020358a: 01 44        	li	s0, 0
; /rustc/ecd44958e0a21110d09862ee080d95a4ca6c52f8/library/core/src/iter/range.rs:621
8020358c: 63 8f 8a 00  	beq	s5, s0, 0x802035aa <_ZN4core3fmt9Formatter3pad17h51646851544023f7E+0x232>
; /rustc/ecd44958e0a21110d09862ee080d95a4ca6c52f8/library/core/src/fmt/mod.rs:1275
80203590: 03 b6 0b 02  	ld	a2, 32(s7)
; /rustc/ecd44958e0a21110d09862ee080d95a4ca6c52f8/library/core/src/num/uint_macros.rs:464
80203594: 05 04        	addi	s0, s0, 1
; /rustc/ecd44958e0a21110d09862ee080d95a4ca6c52f8/library/core/src/fmt/mod.rs:1275
80203596: 5a 85        	mv	a0, s6
80203598: a6 85        	mv	a1, s1
8020359a: 02 96        	jalr	a2
8020359c: 65 d9        	beqz	a0, 0x8020358c <_ZN4core3fmt9Formatter3pad17h51646851544023f7E+0x214>
8020359e: 13 05 f4 ff  	addi	a0, s0, -1
802035a2: 29 a0        	j	0x802035ac <_ZN4core3fmt9Formatter3pad17h51646851544023f7E+0x234>
802035a4: 01 46        	li	a2, 0
; /rustc/ecd44958e0a21110d09862ee080d95a4ca6c52f8/library/core/src/option.rs:780
802035a6: 01 de        	beqz	a2, 0x802034be <_ZN4core3fmt9Formatter3pad17h51646851544023f7E+0x146>
802035a8: 09 bf        	j	0x802034ba <_ZN4core3fmt9Formatter3pad17h51646851544023f7E+0x142>
802035aa: 56 85        	mv	a0, s5
; /rustc/ecd44958e0a21110d09862ee080d95a4ca6c52f8/library/core/src/cmp.rs:1396
802035ac: 33 3a 55 01  	sltu	s4, a0, s5
; /rustc/ecd44958e0a21110d09862ee080d95a4ca6c52f8/library/core/src/fmt/mod.rs:1487
802035b0: 52 85        	mv	a0, s4
802035b2: a6 60        	ld	ra, 72(sp)
802035b4: 06 64        	ld	s0, 64(sp)
802035b6: e2 74        	ld	s1, 56(sp)
802035b8: 42 79        	ld	s2, 48(sp)
802035ba: a2 79        	ld	s3, 40(sp)
802035bc: 02 7a        	ld	s4, 32(sp)
802035be: e2 6a        	ld	s5, 24(sp)
802035c0: 42 6b        	ld	s6, 16(sp)
802035c2: a2 6b        	ld	s7, 8(sp)
802035c4: 61 61        	addi	sp, sp, 80
802035c6: 82 80        	ret

00000000802035c8 <_ZN57_$LT$core..fmt..Formatter$u20$as$u20$core..fmt..Write$GT$9write_str17h41dfcd2520cb7733E>:
; _ZN57_$LT$core..fmt..Formatter$u20$as$u20$core..fmt..Write$GT$9write_str17h41dfcd2520cb7733E():
; /rustc/ecd44958e0a21110d09862ee080d95a4ca6c52f8/library/core/src/fmt/mod.rs:1627
802035c8: 14 75        	ld	a3, 40(a0)
802035ca: 08 71        	ld	a0, 32(a0)
802035cc: 9c 6e        	ld	a5, 24(a3)
802035ce: 82 87        	jr	a5

00000000802035d0 <_ZN4core3fmt9Formatter15debug_lower_hex17h62541fd629c62290E>:
; _ZN4core3fmt9Formatter15debug_lower_hex17h62541fd629c62290E():
; /rustc/ecd44958e0a21110d09862ee080d95a4ca6c52f8/library/core/src/fmt/mod.rs:1918
802035d0: 03 45 05 03  	lbu	a0, 48(a0)
802035d4: 6e 15        	slli	a0, a0, 59
802035d6: 7d 91        	srli	a0, a0, 63
; /rustc/ecd44958e0a21110d09862ee080d95a4ca6c52f8/library/core/src/fmt/mod.rs:1919
802035d8: 82 80        	ret

00000000802035da <_ZN4core3fmt9Formatter15debug_upper_hex17h07e1cc587646d33fE>:
; _ZN4core3fmt9Formatter15debug_upper_hex17h07e1cc587646d33fE():
; /rustc/ecd44958e0a21110d09862ee080d95a4ca6c52f8/library/core/src/fmt/mod.rs:1922
802035da: 03 45 05 03  	lbu	a0, 48(a0)
802035de: 6a 15        	slli	a0, a0, 58
802035e0: 7d 91        	srli	a0, a0, 63
; /rustc/ecd44958e0a21110d09862ee080d95a4ca6c52f8/library/core/src/fmt/mod.rs:1923
802035e2: 82 80        	ret

00000000802035e4 <_ZN4core3fmt9Formatter12debug_struct17hc601275588f38b4fE>:
; _ZN4core3fmt9Formatter12debug_struct17hc601275588f38b4fE():
; /rustc/ecd44958e0a21110d09862ee080d95a4ca6c52f8/library/core/src/fmt/mod.rs:1962
802035e4: 01 11        	addi	sp, sp, -32
802035e6: 06 ec        	sd	ra, 24(sp)
802035e8: 22 e8        	sd	s0, 16(sp)
802035ea: 26 e4        	sd	s1, 8(sp)
802035ec: 2e 84        	mv	s0, a1
; /rustc/ecd44958e0a21110d09862ee080d95a4ca6c52f8/library/core/src/fmt/mod.rs:1627
802035ee: 98 75        	ld	a4, 40(a1)
802035f0: 8c 71        	ld	a1, 32(a1)
802035f2: 18 6f        	ld	a4, 24(a4)
802035f4: aa 84        	mv	s1, a0
802035f6: 2e 85        	mv	a0, a1
802035f8: b2 85        	mv	a1, a2
802035fa: 36 86        	mv	a2, a3
802035fc: 02 97        	jalr	a4
; /rustc/ecd44958e0a21110d09862ee080d95a4ca6c52f8/library/core/src/fmt/builders.rs:100
802035fe: 80 e0        	sd	s0, 0(s1)
80203600: 23 84 a4 00  	sb	a0, 8(s1)
80203604: a3 84 04 00  	sb	zero, 9(s1)
; /rustc/ecd44958e0a21110d09862ee080d95a4ca6c52f8/library/core/src/fmt/mod.rs:1964
80203608: e2 60        	ld	ra, 24(sp)
8020360a: 42 64        	ld	s0, 16(sp)
8020360c: a2 64        	ld	s1, 8(sp)
8020360e: 05 61        	addi	sp, sp, 32
80203610: 82 80        	ret

0000000080203612 <_ZN4core3fmt9Formatter11debug_tuple17he8f4c5c1c192559cE>:
; _ZN4core3fmt9Formatter11debug_tuple17he8f4c5c1c192559cE():
; /rustc/ecd44958e0a21110d09862ee080d95a4ca6c52f8/library/core/src/fmt/mod.rs:1993
80203612: 01 11        	addi	sp, sp, -32
80203614: 06 ec        	sd	ra, 24(sp)
80203616: 22 e8        	sd	s0, 16(sp)
80203618: 26 e4        	sd	s1, 8(sp)
8020361a: 4a e0        	sd	s2, 0(sp)
8020361c: 2e 84        	mv	s0, a1
; /rustc/ecd44958e0a21110d09862ee080d95a4ca6c52f8/library/core/src/fmt/mod.rs:1627
8020361e: 98 75        	ld	a4, 40(a1)
80203620: 8c 71        	ld	a1, 32(a1)
80203622: 18 6f        	ld	a4, 24(a4)
80203624: 36 89        	mv	s2, a3
80203626: aa 84        	mv	s1, a0
80203628: 2e 85        	mv	a0, a1
8020362a: b2 85        	mv	a1, a2
8020362c: 36 86        	mv	a2, a3
8020362e: 02 97        	jalr	a4
; /rustc/ecd44958e0a21110d09862ee080d95a4ca6c52f8/library/core/src/str/mod.rs:179
80203630: 93 35 19 00  	seqz	a1, s2
; /rustc/ecd44958e0a21110d09862ee080d95a4ca6c52f8/library/core/src/fmt/builders.rs:290
80203634: 80 e0        	sd	s0, 0(s1)
80203636: 23 88 a4 00  	sb	a0, 16(s1)
8020363a: 23 b4 04 00  	sd	zero, 8(s1)
8020363e: a3 88 b4 00  	sb	a1, 17(s1)
; /rustc/ecd44958e0a21110d09862ee080d95a4ca6c52f8/library/core/src/fmt/mod.rs:1995
80203642: e2 60        	ld	ra, 24(sp)
80203644: 42 64        	ld	s0, 16(sp)
80203646: a2 64        	ld	s1, 8(sp)
80203648: 02 69        	ld	s2, 0(sp)
8020364a: 05 61        	addi	sp, sp, 32
8020364c: 82 80        	ret

000000008020364e <_ZN4core3fmt9Formatter10debug_list17he3dc2a54027a4f3aE>:
; _ZN4core3fmt9Formatter10debug_list17he3dc2a54027a4f3aE():
; /rustc/ecd44958e0a21110d09862ee080d95a4ca6c52f8/library/core/src/fmt/mod.rs:2016
8020364e: 01 11        	addi	sp, sp, -32
80203650: 06 ec        	sd	ra, 24(sp)
80203652: 22 e8        	sd	s0, 16(sp)
80203654: 26 e4        	sd	s1, 8(sp)
80203656: 2e 84        	mv	s0, a1
; /rustc/ecd44958e0a21110d09862ee080d95a4ca6c52f8/library/core/src/fmt/mod.rs:1627
80203658: 8c 75        	ld	a1, 40(a1)
8020365a: 14 70        	ld	a3, 32(s0)
8020365c: 98 6d        	ld	a4, 24(a1)
8020365e: aa 84        	mv	s1, a0

0000000080203660 <.LBB218_1>:
; .LBB218_1():
; /rustc/ecd44958e0a21110d09862ee080d95a4ca6c52f8/library/core/src/fmt/mod.rs:1627
80203660: 97 85 00 00  	auipc	a1, 8
80203664: 93 85 a5 9b  	addi	a1, a1, -1606
80203668: 05 46        	li	a2, 1
8020366a: 36 85        	mv	a0, a3
8020366c: 02 97        	jalr	a4
; /rustc/ecd44958e0a21110d09862ee080d95a4ca6c52f8/library/core/src/fmt/builders.rs:580
8020366e: 80 e0        	sd	s0, 0(s1)
80203670: 23 84 a4 00  	sb	a0, 8(s1)
80203674: a3 84 04 00  	sb	zero, 9(s1)
; /rustc/ecd44958e0a21110d09862ee080d95a4ca6c52f8/library/core/src/fmt/mod.rs:2018
80203678: e2 60        	ld	ra, 24(sp)
8020367a: 42 64        	ld	s0, 16(sp)
8020367c: a2 64        	ld	s1, 8(sp)
8020367e: 05 61        	addi	sp, sp, 32
80203680: 82 80        	ret

0000000080203682 <_ZN42_$LT$str$u20$as$u20$core..fmt..Display$GT$3fmt17hb613105c9b0e18f2E>:
; _ZN42_$LT$str$u20$as$u20$core..fmt..Display$GT$3fmt17hb613105c9b0e18f2E():
; /rustc/ecd44958e0a21110d09862ee080d95a4ca6c52f8/library/core/src/fmt/mod.rs:2202
80203682: ae 86        	mv	a3, a1
80203684: aa 85        	mv	a1, a0
; /rustc/ecd44958e0a21110d09862ee080d95a4ca6c52f8/library/core/src/fmt/mod.rs:2203
80203686: 32 85        	mv	a0, a2
80203688: 36 86        	mv	a2, a3
8020368a: 17 03 00 00  	auipc	t1, 0
8020368e: 67 00 e3 ce  	jr	-786(t1)

0000000080203692 <_ZN41_$LT$char$u20$as$u20$core..fmt..Debug$GT$3fmt17h6b4b218fb85a779eE>:
; _ZN41_$LT$char$u20$as$u20$core..fmt..Debug$GT$3fmt17h6b4b218fb85a779eE():
; /rustc/ecd44958e0a21110d09862ee080d95a4ca6c52f8/library/core/src/fmt/mod.rs:2209
80203692: 19 71        	addi	sp, sp, -128
; /rustc/ecd44958e0a21110d09862ee080d95a4ca6c52f8/library/core/src/fmt/mod.rs:2112
80203694: 86 fc        	sd	ra, 120(sp)
80203696: a2 f8        	sd	s0, 112(sp)
80203698: a6 f4        	sd	s1, 104(sp)
8020369a: ca f0        	sd	s2, 96(sp)
8020369c: ce ec        	sd	s3, 88(sp)
8020369e: d2 e8        	sd	s4, 80(sp)
802036a0: d6 e4        	sd	s5, 72(sp)
802036a2: da e0        	sd	s6, 64(sp)
802036a4: 5e fc        	sd	s7, 56(sp)
802036a6: 62 f8        	sd	s8, 48(sp)
802036a8: 66 f4        	sd	s9, 40(sp)
802036aa: 6a f0        	sd	s10, 32(sp)
802036ac: 90 75        	ld	a2, 40(a1)
802036ae: 03 ba 05 02  	ld	s4, 32(a1)
802036b2: 1c 72        	ld	a5, 32(a2)
802036b4: aa 84        	mv	s1, a0
802036b6: 93 05 70 02  	li	a1, 39
802036ba: 52 85        	mv	a0, s4
802036bc: 3e e0        	sd	a5, 0(sp)
802036be: 82 97        	jalr	a5
; /rustc/ecd44958e0a21110d09862ee080d95a4ca6c52f8/library/core/src/fmt/mod.rs:2210
802036c0: 05 c1        	beqz	a0, 0x802036e0 <_ZN41_$LT$char$u20$as$u20$core..fmt..Debug$GT$3fmt17h6b4b218fb85a779eE+0x4e>
; /rustc/ecd44958e0a21110d09862ee080d95a4ca6c52f8/library/core/src/fmt/mod.rs:2219
802036c2: 05 45        	li	a0, 1
802036c4: e6 70        	ld	ra, 120(sp)
802036c6: 46 74        	ld	s0, 112(sp)
802036c8: a6 74        	ld	s1, 104(sp)
802036ca: 06 79        	ld	s2, 96(sp)
802036cc: e6 69        	ld	s3, 88(sp)
802036ce: 46 6a        	ld	s4, 80(sp)
802036d0: a6 6a        	ld	s5, 72(sp)
802036d2: 06 6b        	ld	s6, 64(sp)
802036d4: e2 7b        	ld	s7, 56(sp)
802036d6: 42 7c        	ld	s8, 48(sp)
802036d8: a2 7c        	ld	s9, 40(sp)
802036da: 02 7d        	ld	s10, 32(sp)
802036dc: 09 61        	addi	sp, sp, 128
802036de: 82 80        	ret
; /rustc/ecd44958e0a21110d09862ee080d95a4ca6c52f8/library/core/src/fmt/mod.rs:2211
802036e0: 8c 40        	lw	a1, 0(s1)
802036e2: 28 00        	addi	a0, sp, 8
802036e4: 13 06 10 10  	li	a2, 257
802036e8: 97 f0 ff ff  	auipc	ra, 1048575
802036ec: e7 80 c0 c4  	jalr	-948(ra)
; /rustc/ecd44958e0a21110d09862ee080d95a4ca6c52f8/library/core/src/iter/traits/collect.rs:272
802036f0: 22 44        	lw	s0, 8(sp)
802036f2: b2 4a        	lw	s5, 12(sp)
802036f4: c2 69        	ld	s3, 16(sp)
802036f6: 62 49        	lw	s2, 24(sp)
802036f8: 03 4d c1 01  	lbu	s10, 28(sp)
802036fc: 37 05 11 00  	lui	a0, 272
; /rustc/ecd44958e0a21110d09862ee080d95a4ca6c52f8/library/core/src/fmt/mod.rs:2211
80203700: 63 93 aa 08  	bne	s5, a0, 0x80203786 <.LBB228_15+0x8>
80203704: 89 4a        	li	s5, 2
80203706: 0d 4b        	li	s6, 3

0000000080203708 <.LBB228_33>:
; .LBB228_33():
80203708: 97 7b 00 00  	auipc	s7, 7
8020370c: 93 8b 0b 79  	addi	s7, s7, 1936
80203710: 29 4c        	li	s8, 10
80203712: 11 a8        	j	0x80203726 <.LBB228_5+0xa>

0000000080203714 <.LBB228_4>:
; .LBB228_4():
80203714: 8d 44        	li	s1, 3
80203716: 93 05 50 07  	li	a1, 117
8020371a: 0d 4d        	li	s10, 3

000000008020371c <.LBB228_5>:
; .LBB228_5():
; /rustc/ecd44958e0a21110d09862ee080d95a4ca6c52f8/library/core/src/fmt/mod.rs:2112
8020371c: 52 85        	mv	a0, s4
8020371e: 82 67        	ld	a5, 0(sp)
80203720: 82 97        	jalr	a5
80203722: 26 84        	mv	s0, s1
; /rustc/ecd44958e0a21110d09862ee080d95a4ca6c52f8/library/core/src/fmt/mod.rs:2216
80203724: 59 fd        	bnez	a0, 0x802036c2 <_ZN41_$LT$char$u20$as$u20$core..fmt..Debug$GT$3fmt17h6b4b218fb85a779eE+0x30>
80203726: 85 44        	li	s1, 1
80203728: 93 05 c0 05  	li	a1, 92
; /rustc/ecd44958e0a21110d09862ee080d95a4ca6c52f8/library/core/src/char/mod.rs:284
8020372c: e3 08 54 ff  	beq	s0, s5, 0x8020371c <.LBB228_5>
80203730: 63 11 64 0f  	bne	s0, s6, 0x80203812 <.LBB228_32>
; /rustc/ecd44958e0a21110d09862ee080d95a4ca6c52f8/library/core/src/char/mod.rs:174
80203734: 13 75 fd 0f  	andi	a0, s10, 255
80203738: 0e 05        	slli	a0, a0, 3
8020373a: 5e 95        	add	a0, a0, s7
8020373c: 08 61        	ld	a0, 0(a0)
8020373e: 8d 44        	li	s1, 3
80203740: 93 05 d0 07  	li	a1, 125
80203744: 01 4d        	li	s10, 0
80203746: 02 85        	jr	a0

0000000080203748 <.LBB228_9>:
; .LBB228_9():
; /rustc/ecd44958e0a21110d09862ee080d95a4ca6c52f8/library/core/src/char/mod.rs:188
80203748: 1b 95 29 00  	slliw	a0, s3, 2
8020374c: 3b 55 a9 00  	srlw	a0, s2, a0
; /rustc/ecd44958e0a21110d09862ee080d95a4ca6c52f8/library/core/src/char/convert.rs:253
80203750: 3d 89        	andi	a0, a0, 15
80203752: 93 05 00 03  	li	a1, 48
; /rustc/ecd44958e0a21110d09862ee080d95a4ca6c52f8/library/core/src/char/convert.rs:254
80203756: 63 64 85 01  	bltu	a0, s8, 0x8020375e <.LBB228_9+0x16>
8020375a: 93 05 70 05  	li	a1, 87
8020375e: 01 46        	li	a2, 0
; /rustc/ecd44958e0a21110d09862ee080d95a4ca6c52f8/library/core/src/char/mod.rs:190
80203760: 63 84 09 00  	beqz	s3, 0x80203768 <.LBB228_9+0x20>
80203764: 13 86 f9 ff  	addi	a2, s3, -1
80203768: aa 95        	add	a1, a1, a0
8020376a: 13 b5 19 00  	seqz	a0, s3
8020376e: 33 8d aa 40  	sub	s10, s5, a0
80203772: b2 89        	mv	s3, a2
80203774: 65 b7        	j	0x8020371c <.LBB228_5>

0000000080203776 <.LBB228_14>:
; .LBB228_14():
80203776: 09 4d        	li	s10, 2
80203778: 93 05 b0 07  	li	a1, 123
8020377c: 45 b7        	j	0x8020371c <.LBB228_5>

000000008020377e <.LBB228_15>:
; .LBB228_15():
8020377e: 11 4d        	li	s10, 4
80203780: 93 05 c0 05  	li	a1, 92
80203784: 61 bf        	j	0x8020371c <.LBB228_5>
80203786: 05 4b        	li	s6, 1
80203788: 89 4b        	li	s7, 2

000000008020378a <.LBB228_34>:
; .LBB228_34():
8020378a: 17 7c 00 00  	auipc	s8, 7
8020378e: 13 0c ec 6d  	addi	s8, s8, 1758
80203792: a9 4c        	li	s9, 10
80203794: 31 a0        	j	0x802037a0 <.LBB228_18+0x8>
80203796: 05 44        	li	s0, 1

0000000080203798 <.LBB228_18>:
; .LBB228_18():
; /rustc/ecd44958e0a21110d09862ee080d95a4ca6c52f8/library/core/src/fmt/mod.rs:2112
80203798: 52 85        	mv	a0, s4
8020379a: 82 67        	ld	a5, 0(sp)
8020379c: 82 97        	jalr	a5
; /rustc/ecd44958e0a21110d09862ee080d95a4ca6c52f8/library/core/src/fmt/mod.rs:2216
8020379e: 15 f1        	bnez	a0, 0x802036c2 <_ZN41_$LT$char$u20$as$u20$core..fmt..Debug$GT$3fmt17h6b4b218fb85a779eE+0x30>
802037a0: 63 57 8b 04  	bge	s6, s0, 0x802037ee <.LBB228_22+0x2e>
802037a4: 93 05 c0 05  	li	a1, 92
; /rustc/ecd44958e0a21110d09862ee080d95a4ca6c52f8/library/core/src/char/mod.rs:284
802037a8: e3 07 74 ff  	beq	s0, s7, 0x80203796 <.LBB228_34+0xc>
; /rustc/ecd44958e0a21110d09862ee080d95a4ca6c52f8/library/core/src/char/mod.rs:174
802037ac: 13 75 fd 0f  	andi	a0, s10, 255
802037b0: 0e 05        	slli	a0, a0, 3
802037b2: 62 95        	add	a0, a0, s8
802037b4: 08 61        	ld	a0, 0(a0)
802037b6: 0d 44        	li	s0, 3
802037b8: 93 05 d0 07  	li	a1, 125
802037bc: 01 4d        	li	s10, 0
802037be: 02 85        	jr	a0

00000000802037c0 <.LBB228_22>:
; .LBB228_22():
; /rustc/ecd44958e0a21110d09862ee080d95a4ca6c52f8/library/core/src/char/mod.rs:188
802037c0: 1b 95 29 00  	slliw	a0, s3, 2
802037c4: 3b 55 a9 00  	srlw	a0, s2, a0
; /rustc/ecd44958e0a21110d09862ee080d95a4ca6c52f8/library/core/src/char/convert.rs:253
802037c8: 3d 89        	andi	a0, a0, 15
802037ca: 93 05 00 03  	li	a1, 48
; /rustc/ecd44958e0a21110d09862ee080d95a4ca6c52f8/library/core/src/char/convert.rs:254
802037ce: 63 64 95 01  	bltu	a0, s9, 0x802037d6 <.LBB228_22+0x16>
802037d2: 93 05 70 05  	li	a1, 87
802037d6: 01 46        	li	a2, 0
; /rustc/ecd44958e0a21110d09862ee080d95a4ca6c52f8/library/core/src/char/mod.rs:190
802037d8: 63 84 09 00  	beqz	s3, 0x802037e0 <.LBB228_22+0x20>
802037dc: 13 86 f9 ff  	addi	a2, s3, -1
802037e0: aa 95        	add	a1, a1, a0
; /rustc/ecd44958e0a21110d09862ee080d95a4ca6c52f8/library/core/src/char/mod.rs:190
802037e2: 13 b5 19 00  	seqz	a0, s3
802037e6: 33 8d ab 40  	sub	s10, s7, a0
802037ea: b2 89        	mv	s3, a2
802037ec: 75 b7        	j	0x80203798 <.LBB228_18>
802037ee: 63 12 64 03  	bne	s0, s6, 0x80203812 <.LBB228_32>
802037f2: 01 44        	li	s0, 0
802037f4: d6 85        	mv	a1, s5
802037f6: 4d b7        	j	0x80203798 <.LBB228_18>

00000000802037f8 <.LBB228_29>:
; .LBB228_29():
802037f8: 09 4d        	li	s10, 2
802037fa: 93 05 b0 07  	li	a1, 123
802037fe: 69 bf        	j	0x80203798 <.LBB228_18>

0000000080203800 <.LBB228_30>:
; .LBB228_30():
80203800: 0d 44        	li	s0, 3
80203802: 93 05 50 07  	li	a1, 117
80203806: 0d 4d        	li	s10, 3
80203808: 41 bf        	j	0x80203798 <.LBB228_18>

000000008020380a <.LBB228_31>:
; .LBB228_31():
8020380a: 11 4d        	li	s10, 4
8020380c: 93 05 c0 05  	li	a1, 92
80203810: 61 b7        	j	0x80203798 <.LBB228_18>

0000000080203812 <.LBB228_32>:
; .LBB228_32():
; /rustc/ecd44958e0a21110d09862ee080d95a4ca6c52f8/library/core/src/fmt/mod.rs:2112
80203812: 93 05 70 02  	li	a1, 39
80203816: 52 85        	mv	a0, s4
80203818: 82 67        	ld	a5, 0(sp)
8020381a: e6 70        	ld	ra, 120(sp)
8020381c: 46 74        	ld	s0, 112(sp)
8020381e: a6 74        	ld	s1, 104(sp)
80203820: 06 79        	ld	s2, 96(sp)
80203822: e6 69        	ld	s3, 88(sp)
80203824: 46 6a        	ld	s4, 80(sp)
80203826: a6 6a        	ld	s5, 72(sp)
80203828: 06 6b        	ld	s6, 64(sp)
8020382a: e2 7b        	ld	s7, 56(sp)
8020382c: 42 7c        	ld	s8, 48(sp)
8020382e: a2 7c        	ld	s9, 40(sp)
80203830: 02 7d        	ld	s10, 32(sp)
80203832: 09 61        	addi	sp, sp, 128
80203834: 82 87        	jr	a5

0000000080203836 <_ZN4core5slice5index26slice_start_index_len_fail17h8920bc53e5275ac1E>:
; _ZN4core5slice5index26slice_start_index_len_fail17h8920bc53e5275ac1E():
; /rustc/ecd44958e0a21110d09862ee080d95a4ca6c52f8/library/core/src/slice/index.rs:39
80203836: 41 11        	addi	sp, sp, -16
; /rustc/ecd44958e0a21110d09862ee080d95a4ca6c52f8/library/core/src/slice/index.rs:42
80203838: 06 e4        	sd	ra, 8(sp)
8020383a: 97 f0 ff ff  	auipc	ra, 1048575
8020383e: e7 80 40 a4  	jalr	-1468(ra)
80203842: 00 00        	unimp	

0000000080203844 <_ZN4core5slice5index29slice_start_index_len_fail_rt17hd4c78490e5c5d022E>:
; _ZN4core5slice5index29slice_start_index_len_fail_rt17hd4c78490e5c5d022E():
; /rustc/ecd44958e0a21110d09862ee080d95a4ca6c52f8/library/core/src/slice/index.rs:51
80203844: 59 71        	addi	sp, sp, -112
80203846: 86 f4        	sd	ra, 104(sp)
80203848: 2a e4        	sd	a0, 8(sp)
8020384a: 2e e8        	sd	a1, 16(sp)
8020384c: 28 00        	addi	a0, sp, 8
; /rustc/ecd44958e0a21110d09862ee080d95a4ca6c52f8/library/core/src/slice/index.rs:52
8020384e: aa e4        	sd	a0, 72(sp)

0000000080203850 <.LBB245_1>:
; .LBB245_1():
; /rustc/ecd44958e0a21110d09862ee080d95a4ca6c52f8/library/core/src/slice/index.rs:52
80203850: 17 15 00 00  	auipc	a0, 1
80203854: 13 05 45 ce  	addi	a0, a0, -796
80203858: aa e8        	sd	a0, 80(sp)
8020385a: 0c 08        	addi	a1, sp, 16
8020385c: ae ec        	sd	a1, 88(sp)
8020385e: aa f0        	sd	a0, 96(sp)

0000000080203860 <.LBB245_2>:
; .LBB245_2():
; /rustc/ecd44958e0a21110d09862ee080d95a4ca6c52f8/library/core/src/fmt/mod.rs:392
80203860: 17 85 00 00  	auipc	a0, 8
80203864: 13 05 85 91  	addi	a0, a0, -1768
80203868: 2a ec        	sd	a0, 24(sp)
8020386a: 09 45        	li	a0, 2
8020386c: 2a f0        	sd	a0, 32(sp)
8020386e: 02 f4        	sd	zero, 40(sp)
80203870: ac 00        	addi	a1, sp, 72
80203872: 2e fc        	sd	a1, 56(sp)
80203874: aa e0        	sd	a0, 64(sp)

0000000080203876 <.LBB245_3>:
; .LBB245_3():
; /rustc/ecd44958e0a21110d09862ee080d95a4ca6c52f8/library/core/src/slice/index.rs:52
80203876: 97 85 00 00  	auipc	a1, 8
8020387a: 93 85 25 94  	addi	a1, a1, -1726
8020387e: 28 08        	addi	a0, sp, 24
80203880: 97 f0 ff ff  	auipc	ra, 1048575
80203884: e7 80 60 d4  	jalr	-698(ra)
80203888: 00 00        	unimp	

000000008020388a <_ZN4core5slice5index24slice_end_index_len_fail17hc8a550cf7cb0cc9fE>:
; _ZN4core5slice5index24slice_end_index_len_fail17hc8a550cf7cb0cc9fE():
; /rustc/ecd44958e0a21110d09862ee080d95a4ca6c52f8/library/core/src/slice/index.rs:64
8020388a: 41 11        	addi	sp, sp, -16
; /rustc/ecd44958e0a21110d09862ee080d95a4ca6c52f8/library/core/src/slice/index.rs:67
8020388c: 06 e4        	sd	ra, 8(sp)
8020388e: 97 f0 ff ff  	auipc	ra, 1048575
80203892: e7 80 20 9e  	jalr	-1566(ra)
80203896: 00 00        	unimp	

0000000080203898 <_ZN4core5slice5index27slice_end_index_len_fail_rt17h05524c2be8f7c322E>:
; _ZN4core5slice5index27slice_end_index_len_fail_rt17h05524c2be8f7c322E():
; /rustc/ecd44958e0a21110d09862ee080d95a4ca6c52f8/library/core/src/slice/index.rs:72
80203898: 59 71        	addi	sp, sp, -112
8020389a: 86 f4        	sd	ra, 104(sp)
8020389c: 2a e4        	sd	a0, 8(sp)
8020389e: 2e e8        	sd	a1, 16(sp)
802038a0: 28 00        	addi	a0, sp, 8
; /rustc/ecd44958e0a21110d09862ee080d95a4ca6c52f8/library/core/src/slice/index.rs:73
802038a2: aa e4        	sd	a0, 72(sp)

00000000802038a4 <.LBB248_1>:
; .LBB248_1():
; /rustc/ecd44958e0a21110d09862ee080d95a4ca6c52f8/library/core/src/slice/index.rs:73
802038a4: 17 15 00 00  	auipc	a0, 1
802038a8: 13 05 05 c9  	addi	a0, a0, -880
802038ac: aa e8        	sd	a0, 80(sp)
802038ae: 0c 08        	addi	a1, sp, 16
802038b0: ae ec        	sd	a1, 88(sp)
802038b2: aa f0        	sd	a0, 96(sp)

00000000802038b4 <.LBB248_2>:
; .LBB248_2():
; /rustc/ecd44958e0a21110d09862ee080d95a4ca6c52f8/library/core/src/fmt/mod.rs:392
802038b4: 17 85 00 00  	auipc	a0, 8
802038b8: 13 05 c5 91  	addi	a0, a0, -1764
802038bc: 2a ec        	sd	a0, 24(sp)
802038be: 09 45        	li	a0, 2
802038c0: 2a f0        	sd	a0, 32(sp)
802038c2: 02 f4        	sd	zero, 40(sp)
802038c4: ac 00        	addi	a1, sp, 72
802038c6: 2e fc        	sd	a1, 56(sp)
802038c8: aa e0        	sd	a0, 64(sp)

00000000802038ca <.LBB248_3>:
; .LBB248_3():
; /rustc/ecd44958e0a21110d09862ee080d95a4ca6c52f8/library/core/src/slice/index.rs:73
802038ca: 97 85 00 00  	auipc	a1, 8
802038ce: 93 85 65 92  	addi	a1, a1, -1754
802038d2: 28 08        	addi	a0, sp, 24
802038d4: 97 f0 ff ff  	auipc	ra, 1048575
802038d8: e7 80 20 cf  	jalr	-782(ra)
802038dc: 00 00        	unimp	

00000000802038de <_ZN4core5slice5index22slice_index_order_fail17h25ffff7f8bc0545fE>:
; _ZN4core5slice5index22slice_index_order_fail17h25ffff7f8bc0545fE():
; /rustc/ecd44958e0a21110d09862ee080d95a4ca6c52f8/library/core/src/slice/index.rs:85
802038de: 41 11        	addi	sp, sp, -16
; /rustc/ecd44958e0a21110d09862ee080d95a4ca6c52f8/library/core/src/slice/index.rs:87
802038e0: 06 e4        	sd	ra, 8(sp)
802038e2: 97 f0 ff ff  	auipc	ra, 1048575
802038e6: e7 80 20 9c  	jalr	-1598(ra)
802038ea: 00 00        	unimp	

00000000802038ec <_ZN4core5slice5index25slice_index_order_fail_rt17h74f93c5e852b6986E>:
; _ZN4core5slice5index25slice_index_order_fail_rt17h74f93c5e852b6986E():
; /rustc/ecd44958e0a21110d09862ee080d95a4ca6c52f8/library/core/src/slice/index.rs:91
802038ec: 59 71        	addi	sp, sp, -112
802038ee: 86 f4        	sd	ra, 104(sp)
802038f0: 2a e4        	sd	a0, 8(sp)
802038f2: 2e e8        	sd	a1, 16(sp)
802038f4: 28 00        	addi	a0, sp, 8
; /rustc/ecd44958e0a21110d09862ee080d95a4ca6c52f8/library/core/src/slice/index.rs:92
802038f6: aa e4        	sd	a0, 72(sp)

00000000802038f8 <.LBB251_1>:
; .LBB251_1():
; /rustc/ecd44958e0a21110d09862ee080d95a4ca6c52f8/library/core/src/slice/index.rs:92
802038f8: 17 15 00 00  	auipc	a0, 1
802038fc: 13 05 c5 c3  	addi	a0, a0, -964
80203900: aa e8        	sd	a0, 80(sp)
80203902: 0c 08        	addi	a1, sp, 16
80203904: ae ec        	sd	a1, 88(sp)
80203906: aa f0        	sd	a0, 96(sp)

0000000080203908 <.LBB251_2>:
; .LBB251_2():
; /rustc/ecd44958e0a21110d09862ee080d95a4ca6c52f8/library/core/src/fmt/mod.rs:392
80203908: 17 85 00 00  	auipc	a0, 8
8020390c: 13 05 85 92  	addi	a0, a0, -1752
80203910: 2a ec        	sd	a0, 24(sp)
80203912: 09 45        	li	a0, 2
80203914: 2a f0        	sd	a0, 32(sp)
80203916: 02 f4        	sd	zero, 40(sp)
80203918: ac 00        	addi	a1, sp, 72
8020391a: 2e fc        	sd	a1, 56(sp)
8020391c: aa e0        	sd	a0, 64(sp)

000000008020391e <.LBB251_3>:
; .LBB251_3():
; /rustc/ecd44958e0a21110d09862ee080d95a4ca6c52f8/library/core/src/slice/index.rs:92
8020391e: 97 85 00 00  	auipc	a1, 8
80203922: 93 85 25 93  	addi	a1, a1, -1742
80203926: 28 08        	addi	a0, sp, 24
80203928: 97 f0 ff ff  	auipc	ra, 1048575
8020392c: e7 80 e0 c9  	jalr	-866(ra)
80203930: 00 00        	unimp	

0000000080203932 <_ZN4core5slice5index29slice_end_index_overflow_fail17hf62671345bd97b61E>:
; _ZN4core5slice5index29slice_end_index_overflow_fail17hf62671345bd97b61E():
; /rustc/ecd44958e0a21110d09862ee080d95a4ca6c52f8/library/core/src/slice/index.rs:111
80203932: 39 71        	addi	sp, sp, -64
80203934: 06 fc        	sd	ra, 56(sp)
80203936: aa 85        	mv	a1, a0

0000000080203938 <.LBB254_1>:
; .LBB254_1():
; /rustc/ecd44958e0a21110d09862ee080d95a4ca6c52f8/library/core/src/fmt/mod.rs:392
80203938: 17 85 00 00  	auipc	a0, 8
8020393c: 13 05 05 96  	addi	a0, a0, -1696
80203940: 2a e4        	sd	a0, 8(sp)
80203942: 05 45        	li	a0, 1
80203944: 2a e8        	sd	a0, 16(sp)
80203946: 02 ec        	sd	zero, 24(sp)

0000000080203948 <.LBB254_2>:
; .LBB254_2():
; /rustc/ecd44958e0a21110d09862ee080d95a4ca6c52f8/library/core/src/fmt/mod.rs:392
80203948: 17 75 00 00  	auipc	a0, 7
8020394c: 13 05 05 58  	addi	a0, a0, 1408
80203950: 2a f4        	sd	a0, 40(sp)
80203952: 02 f8        	sd	zero, 48(sp)
; /rustc/ecd44958e0a21110d09862ee080d95a4ca6c52f8/library/core/src/slice/index.rs:112
80203954: 28 00        	addi	a0, sp, 8
80203956: 97 f0 ff ff  	auipc	ra, 1048575
8020395a: e7 80 00 c7  	jalr	-912(ra)
8020395e: 00 00        	unimp	

0000000080203960 <_ZN4core3str8converts9from_utf817h43cd97794910e2ebE>:
; _ZN4core3str8converts9from_utf817h43cd97794910e2ebE():
; /rustc/ecd44958e0a21110d09862ee080d95a4ca6c52f8/library/core/src/str/converts.rs:86
80203960: 5d 71        	addi	sp, sp, -80
; /rustc/ecd44958e0a21110d09862ee080d95a4ca6c52f8/library/core/src/str/validations.rs:133
80203962: a2 e4        	sd	s0, 72(sp)
80203964: a6 e0        	sd	s1, 64(sp)
80203966: 4a fc        	sd	s2, 56(sp)
80203968: 4e f8        	sd	s3, 48(sp)
8020396a: 52 f4        	sd	s4, 40(sp)
8020396c: 56 f0        	sd	s5, 32(sp)
8020396e: 5a ec        	sd	s6, 24(sp)
80203970: 5e e8        	sd	s7, 16(sp)
80203972: 62 e4        	sd	s8, 8(sp)
80203974: 93 06 16 ff  	addi	a3, a2, -15
80203978: 01 47        	li	a4, 0
8020397a: 63 63 d6 00  	bltu	a2, a3, 0x80203980 <_ZN4core3str8converts9from_utf817h43cd97794910e2ebE+0x20>
8020397e: 36 87        	mv	a4, a3
; /rustc/ecd44958e0a21110d09862ee080d95a4ca6c52f8/library/core/src/str/validations.rs:136
80203980: 63 04 06 1a  	beqz	a2, 0x80203b28 <.LBB260_50+0x138>
80203984: 81 46        	li	a3, 0
80203986: 93 87 75 00  	addi	a5, a1, 7
8020398a: e1 9b        	andi	a5, a5, -8
8020398c: 33 8c b7 40  	sub	s8, a5, a1

0000000080203990 <.LBB260_49>:
; .LBB260_49():
80203990: 17 88 00 00  	auipc	a6, 8
80203994: 13 08 88 91  	addi	a6, a6, -1768
80203998: 91 48        	li	a7, 4
8020399a: 93 02 00 0f  	li	t0, 240
8020399e: 13 03 00 03  	li	t1, 48
802039a2: 93 03 f0 fb  	li	t2, -65
802039a6: 13 0e 40 0f  	li	t3, 244
802039aa: 93 0e f0 f8  	li	t4, -113
802039ae: 0d 4f        	li	t5, 3
802039b0: 93 0f 00 0e  	li	t6, 224
802039b4: 93 09 00 fa  	li	s3, -96
802039b8: 13 0a d0 0e  	li	s4, 237
802039bc: 31 49        	li	s2, 12
802039be: 89 4a        	li	s5, 2
802039c0: 7d 5b        	li	s6, -1
802039c2: 85 4b        	li	s7, 1
802039c4: 21 a0        	j	0x802039cc <.LBB260_49+0x3c>
; /rustc/ecd44958e0a21110d09862ee080d95a4ca6c52f8/library/core/src/str/validations.rs:236
802039c6: 85 06        	addi	a3, a3, 1
; /rustc/ecd44958e0a21110d09862ee080d95a4ca6c52f8/library/core/src/str/validations.rs:136
802039c8: 63 f0 c6 16  	bgeu	a3, a2, 0x80203b28 <.LBB260_50+0x138>
; /rustc/ecd44958e0a21110d09862ee080d95a4ca6c52f8/library/core/src/str/validations.rs:155
802039cc: b3 87 d5 00  	add	a5, a1, a3
802039d0: 03 c4 07 00  	lbu	s0, 0(a5)
802039d4: 93 17 84 03  	slli	a5, s0, 56
802039d8: 93 d4 87 43  	srai	s1, a5, 56
; /rustc/ecd44958e0a21110d09862ee080d95a4ca6c52f8/library/core/src/str/validations.rs:156
802039dc: 63 c5 04 04  	bltz	s1, 0x80203a26 <.LBB260_50+0x36>
; /rustc/ecd44958e0a21110d09862ee080d95a4ca6c52f8/library/core/src/str/validations.rs:213
802039e0: e3 03 6c ff  	beq	s8, s6, 0x802039c6 <.LBB260_49+0x36>
; /rustc/ecd44958e0a21110d09862ee080d95a4ca6c52f8/library/core/src/num/uint_macros.rs:1226
802039e4: bb 07 dc 40  	subw	a5, s8, a3
; /rustc/ecd44958e0a21110d09862ee080d95a4ca6c52f8/library/core/src/str/validations.rs:213
802039e8: 9d 8b        	andi	a5, a5, 7
802039ea: f1 ff        	bnez	a5, 0x802039c6 <.LBB260_49+0x36>
802039ec: 63 f1 e6 02  	bgeu	a3, a4, 0x80203a0e <.LBB260_50+0x1e>

00000000802039f0 <.LBB260_50>:
; .LBB260_50():
802039f0: 97 a7 00 00  	auipc	a5, 10
802039f4: 93 87 07 d0  	addi	a5, a5, -768
802039f8: 9c 63        	ld	a5, 0(a5)
; /rustc/ecd44958e0a21110d09862ee080d95a4ca6c52f8/library/core/src/str/validations.rs:223
802039fa: 33 84 d5 00  	add	s0, a1, a3
802039fe: 04 60        	ld	s1, 0(s0)
; /rustc/ecd44958e0a21110d09862ee080d95a4ca6c52f8/library/core/src/str/validations.rs:224
80203a00: 00 64        	ld	s0, 8(s0)
; /rustc/ecd44958e0a21110d09862ee080d95a4ca6c52f8/library/core/src/str/validations.rs:120
80203a02: 45 8c        	or	s0, s0, s1
80203a04: 7d 8c        	and	s0, s0, a5
80203a06: 01 e4        	bnez	s0, 0x80203a0e <.LBB260_50+0x1e>
; /rustc/ecd44958e0a21110d09862ee080d95a4ca6c52f8/library/core/src/str/validations.rs:229
80203a08: c1 06        	addi	a3, a3, 16
80203a0a: e3 e8 e6 fe  	bltu	a3, a4, 0x802039fa <.LBB260_50+0xa>
80203a0e: 63 fb c6 10  	bgeu	a3, a2, 0x80203b24 <.LBB260_50+0x134>
; /rustc/ecd44958e0a21110d09862ee080d95a4ca6c52f8/library/core/src/str/validations.rs:232
80203a12: b3 87 d5 00  	add	a5, a1, a3
80203a16: 83 87 07 00  	lb	a5, 0(a5)
80203a1a: 63 c5 07 10  	bltz	a5, 0x80203b24 <.LBB260_50+0x134>
; /rustc/ecd44958e0a21110d09862ee080d95a4ca6c52f8/library/core/src/str/validations.rs:233
80203a1e: 85 06        	addi	a3, a3, 1
80203a20: e3 19 d6 fe  	bne	a2, a3, 0x80203a12 <.LBB260_50+0x22>
80203a24: 11 a2        	j	0x80203b28 <.LBB260_50+0x138>
; /rustc/ecd44958e0a21110d09862ee080d95a4ca6c52f8/library/core/src/str/validations.rs:270
80203a26: b3 07 04 01  	add	a5, s0, a6
80203a2a: 83 c7 07 00  	lbu	a5, 0(a5)
; /rustc/ecd44958e0a21110d09862ee080d95a4ca6c52f8/library/core/src/str/validations.rs:176
80203a2e: 63 82 17 03  	beq	a5, a7, 0x80203a52 <.LBB260_50+0x62>
80203a32: 63 8e e7 03  	beq	a5, t5, 0x80203a6e <.LBB260_50+0x7e>
80203a36: 63 9f 57 0f  	bne	a5, s5, 0x80203b34 <.LBB260_50+0x144>
; /rustc/ecd44958e0a21110d09862ee080d95a4ca6c52f8/library/core/src/str/validations.rs:178
80203a3a: 13 84 16 00  	addi	s0, a3, 1
80203a3e: 63 79 c4 0e  	bgeu	s0, a2, 0x80203b30 <.LBB260_50+0x140>
80203a42: b3 87 85 00  	add	a5, a1, s0
80203a46: 83 87 07 00  	lb	a5, 0(a5)
80203a4a: 85 44        	li	s1, 1
80203a4c: 63 da f3 0c  	bge	t2, a5, 0x80203b20 <.LBB260_50+0x130>
80203a50: fd a0        	j	0x80203b3e <.LBB260_50+0x14e>
; /rustc/ecd44958e0a21110d09862ee080d95a4ca6c52f8/library/core/src/str/validations.rs:195
80203a52: 93 87 16 00  	addi	a5, a3, 1
80203a56: 63 fd c7 0c  	bgeu	a5, a2, 0x80203b30 <.LBB260_50+0x140>
80203a5a: ae 97        	add	a5, a5, a1
80203a5c: 83 87 07 00  	lb	a5, 0(a5)
80203a60: 63 05 54 02  	beq	s0, t0, 0x80203a8a <.LBB260_50+0x9a>
80203a64: 63 1a c4 03  	bne	s0, t3, 0x80203a98 <.LBB260_50+0xa8>
80203a68: 63 d5 fe 04  	bge	t4, a5, 0x80203ab2 <.LBB260_50+0xc2>
80203a6c: e1 a0        	j	0x80203b34 <.LBB260_50+0x144>
; /rustc/ecd44958e0a21110d09862ee080d95a4ca6c52f8/library/core/src/str/validations.rs:183
80203a6e: 93 87 16 00  	addi	a5, a3, 1
80203a72: 63 ff c7 0a  	bgeu	a5, a2, 0x80203b30 <.LBB260_50+0x140>
80203a76: ae 97        	add	a5, a5, a1
80203a78: 83 87 07 00  	lb	a5, 0(a5)
80203a7c: 63 0f f4 05  	beq	s0, t6, 0x80203ada <.LBB260_50+0xea>
80203a80: 63 11 44 07  	bne	s0, s4, 0x80203ae2 <.LBB260_50+0xf2>
80203a84: 63 c4 37 09  	blt	a5, s3, 0x80203b0c <.LBB260_50+0x11c>
80203a88: 75 a0        	j	0x80203b34 <.LBB260_50+0x144>
; /rustc/ecd44958e0a21110d09862ee080d95a4ca6c52f8/library/core/src/str/validations.rs:196
80203a8a: 9b 87 07 07  	addiw	a5, a5, 112
80203a8e: 93 f7 f7 0f  	andi	a5, a5, 255
80203a92: 63 e0 67 02  	bltu	a5, t1, 0x80203ab2 <.LBB260_50+0xc2>
80203a96: 79 a8        	j	0x80203b34 <.LBB260_50+0x144>
80203a98: 1b 84 f4 00  	addiw	s0, s1, 15
80203a9c: 13 74 f4 0f  	andi	s0, s0, 255
80203aa0: 13 34 34 00  	sltiu	s0, s0, 3
80203aa4: 93 a4 07 00  	slti	s1, a5, 0
80203aa8: 65 8c        	and	s0, s0, s1
80203aaa: 93 b7 07 fc  	sltiu	a5, a5, -64
80203aae: e1 8f        	and	a5, a5, s0
80203ab0: d1 c3        	beqz	a5, 0x80203b34 <.LBB260_50+0x144>
; /rustc/ecd44958e0a21110d09862ee080d95a4ca6c52f8/library/core/src/str/validations.rs:199
80203ab2: 93 87 26 00  	addi	a5, a3, 2
80203ab6: 63 fd c7 06  	bgeu	a5, a2, 0x80203b30 <.LBB260_50+0x140>
80203aba: ae 97        	add	a5, a5, a1
80203abc: 83 87 07 00  	lb	a5, 0(a5)
80203ac0: 63 cc f3 06  	blt	t2, a5, 0x80203b38 <.LBB260_50+0x148>
; /rustc/ecd44958e0a21110d09862ee080d95a4ca6c52f8/library/core/src/str/validations.rs:202
80203ac4: 13 84 36 00  	addi	s0, a3, 3
80203ac8: 63 74 c4 06  	bgeu	s0, a2, 0x80203b30 <.LBB260_50+0x140>
80203acc: b3 87 85 00  	add	a5, a1, s0
80203ad0: 83 87 07 00  	lb	a5, 0(a5)
80203ad4: 63 d6 f3 04  	bge	t2, a5, 0x80203b20 <.LBB260_50+0x130>
80203ad8: 95 a0        	j	0x80203b3c <.LBB260_50+0x14c>
; /rustc/ecd44958e0a21110d09862ee080d95a4ca6c52f8/library/core/src/str/validations.rs:184
80203ada: 81 9b        	andi	a5, a5, -32
80203adc: 63 88 37 03  	beq	a5, s3, 0x80203b0c <.LBB260_50+0x11c>
80203ae0: 91 a8        	j	0x80203b34 <.LBB260_50+0x144>
; /rustc/ecd44958e0a21110d09862ee080d95a4ca6c52f8/library/core/src/str/validations.rs:185
80203ae2: 1b 84 f4 01  	addiw	s0, s1, 31
80203ae6: 13 74 f4 0f  	andi	s0, s0, 255
80203aea: 63 75 24 01  	bgeu	s0, s2, 0x80203af4 <.LBB260_50+0x104>
80203aee: 63 df f3 00  	bge	t2, a5, 0x80203b0c <.LBB260_50+0x11c>
80203af2: 89 a0        	j	0x80203b34 <.LBB260_50+0x144>
; /rustc/ecd44958e0a21110d09862ee080d95a4ca6c52f8/library/core/src/str/validations.rs:187
80203af4: 13 f4 e4 ff  	andi	s0, s1, -2
80203af8: 49 04        	addi	s0, s0, 18
80203afa: 13 34 14 00  	seqz	s0, s0
80203afe: 93 a4 07 00  	slti	s1, a5, 0
80203b02: 65 8c        	and	s0, s0, s1
80203b04: 93 b7 07 fc  	sltiu	a5, a5, -64
80203b08: e1 8f        	and	a5, a5, s0
80203b0a: 8d c7        	beqz	a5, 0x80203b34 <.LBB260_50+0x144>
; /rustc/ecd44958e0a21110d09862ee080d95a4ca6c52f8/library/core/src/str/validations.rs:190
80203b0c: 13 84 26 00  	addi	s0, a3, 2
80203b10: 63 70 c4 02  	bgeu	s0, a2, 0x80203b30 <.LBB260_50+0x140>
80203b14: b3 87 85 00  	add	a5, a1, s0
80203b18: 83 87 07 00  	lb	a5, 0(a5)
80203b1c: 63 ce f3 00  	blt	t2, a5, 0x80203b38 <.LBB260_50+0x148>
; /rustc/ecd44958e0a21110d09862ee080d95a4ca6c52f8/library/core/src/str/validations.rs:208
80203b20: 93 06 14 00  	addi	a3, s0, 1
; /rustc/ecd44958e0a21110d09862ee080d95a4ca6c52f8/library/core/src/str/validations.rs:136
80203b24: e3 e4 c6 ea  	bltu	a3, a2, 0x802039cc <.LBB260_49+0x3c>
80203b28: 81 46        	li	a3, 0
; /rustc/ecd44958e0a21110d09862ee080d95a4ca6c52f8/library/core/src/str/converts.rs:91
80203b2a: 0c e5        	sd	a1, 8(a0)
80203b2c: 10 e9        	sd	a2, 16(a0)
80203b2e: 31 a8        	j	0x80203b4a <.LBB260_50+0x15a>
80203b30: 81 4b        	li	s7, 0
80203b32: 31 a0        	j	0x80203b3e <.LBB260_50+0x14e>
80203b34: 85 44        	li	s1, 1
80203b36: 21 a0        	j	0x80203b3e <.LBB260_50+0x14e>
80203b38: 89 44        	li	s1, 2
80203b3a: 11 a0        	j	0x80203b3e <.LBB260_50+0x14e>
80203b3c: 8d 44        	li	s1, 3
; /rustc/ecd44958e0a21110d09862ee080d95a4ca6c52f8/library/core/src/str/converts.rs:93
80203b3e: 14 e5        	sd	a3, 8(a0)
80203b40: 23 08 75 01  	sb	s7, 16(a0)
80203b44: a3 08 95 00  	sb	s1, 17(a0)
80203b48: 85 46        	li	a3, 1
80203b4a: 14 e1        	sd	a3, 0(a0)
; /rustc/ecd44958e0a21110d09862ee080d95a4ca6c52f8/library/core/src/str/converts.rs:95
80203b4c: 26 64        	ld	s0, 72(sp)
80203b4e: 86 64        	ld	s1, 64(sp)
80203b50: 62 79        	ld	s2, 56(sp)
80203b52: c2 79        	ld	s3, 48(sp)
80203b54: 22 7a        	ld	s4, 40(sp)
80203b56: 82 7a        	ld	s5, 32(sp)
80203b58: 62 6b        	ld	s6, 24(sp)
80203b5a: c2 6b        	ld	s7, 16(sp)
80203b5c: 22 6c        	ld	s8, 8(sp)
80203b5e: 61 61        	addi	sp, sp, 80
80203b60: 82 80        	ret

0000000080203b62 <_ZN4core3str5count14do_count_chars17hf3533599151f97f5E>:
; _ZN4core3str5count14do_count_chars17hf3533599151f97f5E():
; /rustc/ecd44958e0a21110d09862ee080d95a4ca6c52f8/library/core/src/str/count.rs:38
80203b62: 2a 86        	mv	a2, a0
; /rustc/ecd44958e0a21110d09862ee080d95a4ca6c52f8/library/core/src/ptr/mod.rs:1607
80203b64: 1d 05        	addi	a0, a0, 7
80203b66: 61 99        	andi	a0, a0, -8
80203b68: b3 08 c5 40  	sub	a7, a0, a2
; /rustc/ecd44958e0a21110d09862ee080d95a4ca6c52f8/library/core/src/slice/mod.rs:3454
80203b6c: 63 eb 15 01  	bltu	a1, a7, 0x80203b82 <_ZN4core3str5count14do_count_chars17hf3533599151f97f5E+0x20>
; /rustc/ecd44958e0a21110d09862ee080d95a4ca6c52f8/library/core/src/slice/index.rs:286
80203b70: 33 88 15 41  	sub	a6, a1, a7
; /rustc/ecd44958e0a21110d09862ee080d95a4ca6c52f8/library/core/src/slice/mod.rs:153
80203b74: 93 36 88 00  	sltiu	a3, a6, 8
80203b78: 21 47        	li	a4, 8
; /rustc/ecd44958e0a21110d09862ee080d95a4ca6c52f8/library/core/src/str/count.rs:67
80203b7a: 33 37 17 01  	sltu	a4, a4, a7
80203b7e: d9 8e        	or	a3, a3, a4
80203b80: 91 ce        	beqz	a3, 0x80203b9c <_ZN4core3str5count14do_count_chars17hf3533599151f97f5E+0x3a>
80203b82: 01 45        	li	a0, 0
; /rustc/ecd44958e0a21110d09862ee080d95a4ca6c52f8/library/core/src/slice/iter/macros.rs:146
80203b84: 99 c9        	beqz	a1, 0x80203b9a <_ZN4core3str5count14do_count_chars17hf3533599151f97f5E+0x38>
80203b86: 93 06 f0 fb  	li	a3, -65
; /rustc/ecd44958e0a21110d09862ee080d95a4ca6c52f8/library/core/src/iter/traits/iterator.rs:2366
80203b8a: 03 07 06 00  	lb	a4, 0(a2)
; /rustc/ecd44958e0a21110d09862ee080d95a4ca6c52f8/library/core/src/ptr/mut_ptr.rs:467
80203b8e: 05 06        	addi	a2, a2, 1
; /rustc/ecd44958e0a21110d09862ee080d95a4ca6c52f8/library/core/src/str/validations.rs:25
80203b90: 33 a7 e6 00  	slt	a4, a3, a4
; /rustc/ecd44958e0a21110d09862ee080d95a4ca6c52f8/library/core/src/slice/iter/macros.rs:146
80203b94: fd 15        	addi	a1, a1, -1
; /rustc/ecd44958e0a21110d09862ee080d95a4ca6c52f8/library/core/src/iter/traits/accum.rs:45
80203b96: 3a 95        	add	a0, a0, a4
; /rustc/ecd44958e0a21110d09862ee080d95a4ca6c52f8/library/core/src/slice/iter/macros.rs:146
80203b98: ed f9        	bnez	a1, 0x80203b8a <_ZN4core3str5count14do_count_chars17hf3533599151f97f5E+0x28>
; /rustc/ecd44958e0a21110d09862ee080d95a4ca6c52f8/library/core/src/str/count.rs:107
80203b9a: 82 80        	ret
80203b9c: 93 76 78 00  	andi	a3, a6, 7
80203ba0: 01 47        	li	a4, 0
; /rustc/ecd44958e0a21110d09862ee080d95a4ca6c52f8/library/core/src/slice/iter/macros.rs:146
80203ba2: 63 8f 08 00  	beqz	a7, 0x80203bc0 <_ZN4core3str5count14do_count_chars17hf3533599151f97f5E+0x5e>
80203ba6: 33 05 a6 40  	sub	a0, a2, a0
80203baa: 93 02 f0 fb  	li	t0, -65
80203bae: b2 87        	mv	a5, a2
; /rustc/ecd44958e0a21110d09862ee080d95a4ca6c52f8/library/core/src/iter/traits/iterator.rs:2366
80203bb0: 83 85 07 00  	lb	a1, 0(a5)
; /rustc/ecd44958e0a21110d09862ee080d95a4ca6c52f8/library/core/src/ptr/mut_ptr.rs:467
80203bb4: 85 07        	addi	a5, a5, 1
; /rustc/ecd44958e0a21110d09862ee080d95a4ca6c52f8/library/core/src/str/validations.rs:25
80203bb6: b3 a5 b2 00  	slt	a1, t0, a1
; /rustc/ecd44958e0a21110d09862ee080d95a4ca6c52f8/library/core/src/slice/iter/macros.rs:146
80203bba: 05 05        	addi	a0, a0, 1
; /rustc/ecd44958e0a21110d09862ee080d95a4ca6c52f8/library/core/src/iter/traits/accum.rs:45
80203bbc: 2e 97        	add	a4, a4, a1
; /rustc/ecd44958e0a21110d09862ee080d95a4ca6c52f8/library/core/src/slice/iter/macros.rs:146
80203bbe: 6d f9        	bnez	a0, 0x80203bb0 <_ZN4core3str5count14do_count_chars17hf3533599151f97f5E+0x4e>
80203bc0: b3 02 16 01  	add	t0, a2, a7
80203bc4: 81 45        	li	a1, 0
; /rustc/ecd44958e0a21110d09862ee080d95a4ca6c52f8/library/core/src/slice/iter/macros.rs:146
80203bc6: 99 ce        	beqz	a3, 0x80203be4 <_ZN4core3str5count14do_count_chars17hf3533599151f97f5E+0x82>
80203bc8: 13 75 88 ff  	andi	a0, a6, -8
80203bcc: 33 86 a2 00  	add	a2, t0, a0
80203bd0: 13 05 f0 fb  	li	a0, -65
; /rustc/ecd44958e0a21110d09862ee080d95a4ca6c52f8/library/core/src/iter/traits/iterator.rs:2366
80203bd4: 83 07 06 00  	lb	a5, 0(a2)
; /rustc/ecd44958e0a21110d09862ee080d95a4ca6c52f8/library/core/src/ptr/mut_ptr.rs:467
80203bd8: 05 06        	addi	a2, a2, 1
; /rustc/ecd44958e0a21110d09862ee080d95a4ca6c52f8/library/core/src/str/validations.rs:25
80203bda: b3 27 f5 00  	slt	a5, a0, a5
; /rustc/ecd44958e0a21110d09862ee080d95a4ca6c52f8/library/core/src/slice/iter/macros.rs:146
80203bde: fd 16        	addi	a3, a3, -1
; /rustc/ecd44958e0a21110d09862ee080d95a4ca6c52f8/library/core/src/iter/traits/accum.rs:45
80203be0: be 95        	add	a1, a1, a5
; /rustc/ecd44958e0a21110d09862ee080d95a4ca6c52f8/library/core/src/slice/iter/macros.rs:146
80203be2: ed fa        	bnez	a3, 0x80203bd4 <_ZN4core3str5count14do_count_chars17hf3533599151f97f5E+0x72>
80203be4: 13 56 38 00  	srli	a2, a6, 3

0000000080203be8 <.LBB262_25>:
; .LBB262_25():
80203be8: 17 a5 00 00  	auipc	a0, 10
80203bec: 13 05 85 b1  	addi	a0, a0, -1256
80203bf0: 83 3e 05 00  	ld	t4, 0(a0)

0000000080203bf4 <.LBB262_26>:
; .LBB262_26():
80203bf4: 17 a5 00 00  	auipc	a0, 10
80203bf8: 13 05 45 b1  	addi	a0, a0, -1260
80203bfc: 83 38 05 00  	ld	a7, 0(a0)
80203c00: 37 15 00 10  	lui	a0, 65537
80203c04: 12 05        	slli	a0, a0, 4
80203c06: 05 05        	addi	a0, a0, 1
80203c08: 42 05        	slli	a0, a0, 16
80203c0a: 13 08 15 00  	addi	a6, a0, 1
; /rustc/ecd44958e0a21110d09862ee080d95a4ca6c52f8/library/core/src/str/count.rs:71
80203c0e: 33 85 e5 00  	add	a0, a1, a4
80203c12: 25 a0        	j	0x80203c3a <.LBB262_26+0x46>
80203c14: 93 95 33 00  	slli	a1, t2, 3
80203c18: ae 92        	add	t0, t0, a1
80203c1a: 33 06 73 40  	sub	a2, t1, t2
80203c1e: 93 f5 33 00  	andi	a1, t2, 3
; /rustc/ecd44958e0a21110d09862ee080d95a4ca6c52f8/library/core/src/str/count.rs:126
80203c22: b3 f6 17 01  	and	a3, a5, a7
80203c26: 13 d7 87 00  	srli	a4, a5, 8
80203c2a: 33 77 17 01  	and	a4, a4, a7
80203c2e: ba 96        	add	a3, a3, a4
; /rustc/ecd44958e0a21110d09862ee080d95a4ca6c52f8/library/core/src/num/uint_macros.rs:1249
80203c30: b3 86 06 03  	mul	a3, a3, a6
; /rustc/ecd44958e0a21110d09862ee080d95a4ca6c52f8/library/core/src/str/count.rs:127
80203c34: c1 92        	srli	a3, a3, 48
; /rustc/ecd44958e0a21110d09862ee080d95a4ca6c52f8/library/core/src/str/count.rs:90
80203c36: 36 95        	add	a0, a0, a3
80203c38: b5 ed        	bnez	a1, 0x80203cb4 <.LBB262_26+0xc0>
80203c3a: 25 d2        	beqz	a2, 0x80203b9a <_ZN4core3str5count14do_count_chars17hf3533599151f97f5E+0x38>
80203c3c: 32 83        	mv	t1, a2
80203c3e: 93 05 00 0c  	li	a1, 192
80203c42: b2 83        	mv	t2, a2
80203c44: 63 64 b6 00  	bltu	a2, a1, 0x80203c4c <.LBB262_26+0x58>
80203c48: 93 03 00 0c  	li	t2, 192
; /rustc/ecd44958e0a21110d09862ee080d95a4ca6c52f8/library/core/src/slice/mod.rs:1002
80203c4c: 93 f5 c3 0f  	andi	a1, t2, 252
; /rustc/ecd44958e0a21110d09862ee080d95a4ca6c52f8/library/core/src/slice/iter.rs:100
80203c50: 8e 05        	slli	a1, a1, 3
80203c52: 33 8e b2 00  	add	t3, t0, a1
80203c56: 81 47        	li	a5, 0
80203c58: d5 dd        	beqz	a1, 0x80203c14 <.LBB262_26+0x20>
80203c5a: 96 85        	mv	a1, t0
; /rustc/ecd44958e0a21110d09862ee080d95a4ca6c52f8/library/core/src/str/count.rs:81
80203c5c: 90 61        	ld	a2, 0(a1)
; /rustc/ecd44958e0a21110d09862ee080d95a4ca6c52f8/library/core/src/str/count.rs:116
80203c5e: 13 47 f6 ff  	not	a4, a2
80203c62: 1d 83        	srli	a4, a4, 7
80203c64: 19 82        	srli	a2, a2, 6
; /rustc/ecd44958e0a21110d09862ee080d95a4ca6c52f8/library/core/src/str/count.rs:81
80203c66: 94 65        	ld	a3, 8(a1)
; /rustc/ecd44958e0a21110d09862ee080d95a4ca6c52f8/library/core/src/str/count.rs:116
80203c68: 59 8e        	or	a2, a2, a4
80203c6a: 33 76 d6 01  	and	a2, a2, t4
; /rustc/ecd44958e0a21110d09862ee080d95a4ca6c52f8/library/core/src/str/count.rs:84
80203c6e: 3e 96        	add	a2, a2, a5
; /rustc/ecd44958e0a21110d09862ee080d95a4ca6c52f8/library/core/src/str/count.rs:116
80203c70: 13 c7 f6 ff  	not	a4, a3
80203c74: 1d 83        	srli	a4, a4, 7
80203c76: 99 82        	srli	a3, a3, 6
; /rustc/ecd44958e0a21110d09862ee080d95a4ca6c52f8/library/core/src/str/count.rs:81
80203c78: 9c 69        	ld	a5, 16(a1)
; /rustc/ecd44958e0a21110d09862ee080d95a4ca6c52f8/library/core/src/str/count.rs:116
80203c7a: d9 8e        	or	a3, a3, a4
80203c7c: b3 f6 d6 01  	and	a3, a3, t4
; /rustc/ecd44958e0a21110d09862ee080d95a4ca6c52f8/library/core/src/str/count.rs:84
80203c80: 36 96        	add	a2, a2, a3
; /rustc/ecd44958e0a21110d09862ee080d95a4ca6c52f8/library/core/src/str/count.rs:116
80203c82: 93 c6 f7 ff  	not	a3, a5
80203c86: 9d 82        	srli	a3, a3, 7
80203c88: 13 d7 67 00  	srli	a4, a5, 6
; /rustc/ecd44958e0a21110d09862ee080d95a4ca6c52f8/library/core/src/str/count.rs:81
80203c8c: 9c 6d        	ld	a5, 24(a1)
; /rustc/ecd44958e0a21110d09862ee080d95a4ca6c52f8/library/core/src/str/count.rs:116
80203c8e: d9 8e        	or	a3, a3, a4
80203c90: b3 f6 d6 01  	and	a3, a3, t4
; /rustc/ecd44958e0a21110d09862ee080d95a4ca6c52f8/library/core/src/str/count.rs:84
80203c94: 36 96        	add	a2, a2, a3
; /rustc/ecd44958e0a21110d09862ee080d95a4ca6c52f8/library/core/src/str/count.rs:116
80203c96: 93 c6 f7 ff  	not	a3, a5
80203c9a: 9d 82        	srli	a3, a3, 7
80203c9c: 13 d7 67 00  	srli	a4, a5, 6
80203ca0: d9 8e        	or	a3, a3, a4
80203ca2: b3 f6 d6 01  	and	a3, a3, t4
; /rustc/ecd44958e0a21110d09862ee080d95a4ca6c52f8/library/core/src/slice/iter/macros.rs:146
80203ca6: 93 85 05 02  	addi	a1, a1, 32
; /rustc/ecd44958e0a21110d09862ee080d95a4ca6c52f8/library/core/src/str/count.rs:84
80203caa: b3 87 c6 00  	add	a5, a3, a2
80203cae: e3 97 c5 fb  	bne	a1, t3, 0x80203c5c <.LBB262_26+0x68>
80203cb2: 8d b7        	j	0x80203c14 <.LBB262_26+0x20>
80203cb4: 93 05 00 0c  	li	a1, 192
80203cb8: 63 64 b3 00  	bltu	t1, a1, 0x80203cc0 <.LBB262_26+0xcc>
80203cbc: 13 03 00 0c  	li	t1, 192
80203cc0: 81 45        	li	a1, 0
; /rustc/ecd44958e0a21110d09862ee080d95a4ca6c52f8/library/core/src/slice/iter/macros.rs:146
80203cc2: 13 76 33 00  	andi	a2, t1, 3
80203cc6: 0e 06        	slli	a2, a2, 3
; /rustc/ecd44958e0a21110d09862ee080d95a4ca6c52f8/library/core/src/str/count.rs:99
80203cc8: 83 36 0e 00  	ld	a3, 0(t3)
; /rustc/ecd44958e0a21110d09862ee080d95a4ca6c52f8/library/core/src/ptr/mut_ptr.rs:467
80203ccc: 21 0e        	addi	t3, t3, 8
; /rustc/ecd44958e0a21110d09862ee080d95a4ca6c52f8/library/core/src/str/count.rs:116
80203cce: 13 c7 f6 ff  	not	a4, a3
80203cd2: 1d 83        	srli	a4, a4, 7
80203cd4: 99 82        	srli	a3, a3, 6
80203cd6: d9 8e        	or	a3, a3, a4
80203cd8: b3 f6 d6 01  	and	a3, a3, t4
; /rustc/ecd44958e0a21110d09862ee080d95a4ca6c52f8/library/core/src/slice/iter/macros.rs:146
80203cdc: 61 16        	addi	a2, a2, -8
; /rustc/ecd44958e0a21110d09862ee080d95a4ca6c52f8/library/core/src/str/count.rs:100
80203cde: b6 95        	add	a1, a1, a3
80203ce0: 65 f6        	bnez	a2, 0x80203cc8 <.LBB262_26+0xd4>
; /rustc/ecd44958e0a21110d09862ee080d95a4ca6c52f8/library/core/src/str/count.rs:126
80203ce2: 33 f6 15 01  	and	a2, a1, a7
80203ce6: a1 81        	srli	a1, a1, 8
80203ce8: b3 f5 15 01  	and	a1, a1, a7
80203cec: b2 95        	add	a1, a1, a2
; /rustc/ecd44958e0a21110d09862ee080d95a4ca6c52f8/library/core/src/num/uint_macros.rs:1249
80203cee: b3 85 05 03  	mul	a1, a1, a6
; /rustc/ecd44958e0a21110d09862ee080d95a4ca6c52f8/library/core/src/str/count.rs:127
80203cf2: c1 91        	srli	a1, a1, 48
; /rustc/ecd44958e0a21110d09862ee080d95a4ca6c52f8/library/core/src/str/count.rs:102
80203cf4: 2e 95        	add	a0, a0, a1
; /rustc/ecd44958e0a21110d09862ee080d95a4ca6c52f8/library/core/src/str/count.rs:107
80203cf6: 82 80        	ret

0000000080203cf8 <_ZN4core3str16slice_error_fail17hf30d9c7163561228E>:
; _ZN4core3str16slice_error_fail17hf30d9c7163561228E():
; /rustc/ecd44958e0a21110d09862ee080d95a4ca6c52f8/library/core/src/str/mod.rs:83
80203cf8: 79 71        	addi	sp, sp, -48
; /rustc/ecd44958e0a21110d09862ee080d95a4ca6c52f8/library/core/src/str/mod.rs:87
80203cfa: 06 f4        	sd	ra, 40(sp)
80203cfc: 2a e4        	sd	a0, 8(sp)
80203cfe: 2e e8        	sd	a1, 16(sp)
80203d00: 32 ec        	sd	a2, 24(sp)
80203d02: 36 f0        	sd	a3, 32(sp)
; /rustc/ecd44958e0a21110d09862ee080d95a4ca6c52f8/library/core/src/str/mod.rs:86
80203d04: 28 00        	addi	a0, sp, 8
80203d06: 97 e0 ff ff  	auipc	ra, 1048574
80203d0a: e7 80 60 58  	jalr	1414(ra)
80203d0e: 00 00        	unimp	

0000000080203d10 <_ZN4core3str19slice_error_fail_rt17h4548d32af0591c25E>:
; _ZN4core3str19slice_error_fail_rt17h4548d32af0591c25E():
; /rustc/ecd44958e0a21110d09862ee080d95a4ca6c52f8/library/core/src/str/mod.rs:98
80203d10: 15 71        	addi	sp, sp, -224
80203d12: 86 ed        	sd	ra, 216(sp)
80203d14: 32 e4        	sd	a2, 8(sp)
80203d16: 13 07 10 10  	li	a4, 257
80203d1a: 36 e8        	sd	a3, 16(sp)
; /rustc/ecd44958e0a21110d09862ee080d95a4ca6c52f8/library/core/src/str/mod.rs:257
80203d1c: 63 e6 e5 04  	bltu	a1, a4, 0x80203d68 <.LBB280_48+0xe>
; /rustc/ecd44958e0a21110d09862ee080d95a4ca6c52f8/library/core/src/slice/iter/macros.rs:318
80203d20: 83 07 05 10  	lb	a5, 256(a0)
80203d24: 13 08 f0 fb  	li	a6, -65
80203d28: 13 07 00 10  	li	a4, 256
80203d2c: 63 42 f8 02  	blt	a6, a5, 0x80203d50 <_ZN4core3str19slice_error_fail_rt17h4548d32af0591c25E+0x40>
80203d30: 83 07 f5 0f  	lb	a5, 255(a0)
80203d34: 13 07 f0 0f  	li	a4, 255
80203d38: 63 4c f8 00  	blt	a6, a5, 0x80203d50 <_ZN4core3str19slice_error_fail_rt17h4548d32af0591c25E+0x40>
80203d3c: 83 07 e5 0f  	lb	a5, 254(a0)
80203d40: 13 08 f0 fb  	li	a6, -65
80203d44: 13 07 e0 0f  	li	a4, 254
80203d48: 63 44 f8 00  	blt	a6, a5, 0x80203d50 <_ZN4core3str19slice_error_fail_rt17h4548d32af0591c25E+0x40>
80203d4c: 13 07 d0 0f  	li	a4, 253
; /rustc/ecd44958e0a21110d09862ee080d95a4ca6c52f8/library/core/src/str/mod.rs:218
80203d50: 63 7a b7 00  	bgeu	a4, a1, 0x80203d64 <.LBB280_48+0xa>
; /rustc/ecd44958e0a21110d09862ee080d95a4ca6c52f8/library/core/src/str/mod.rs:101
80203d54: 2a ec        	sd	a0, 24(sp)
80203d56: 3a f0        	sd	a4, 32(sp)
80203d58: 15 48        	li	a6, 5

0000000080203d5a <.LBB280_48>:
; .LBB280_48():
80203d5a: 97 77 00 00  	auipc	a5, 7
80203d5e: 93 87 97 66  	addi	a5, a5, 1641
80203d62: 11 a8        	j	0x80203d76 <.LBB280_49+0x8>
; /rustc/ecd44958e0a21110d09862ee080d95a4ca6c52f8/library/core/src/str/traits.rs:259
80203d64: 63 1d b7 0e  	bne	a4, a1, 0x80203e5e <.LBB280_57+0x42>
80203d68: 01 48        	li	a6, 0
; /rustc/ecd44958e0a21110d09862ee080d95a4ca6c52f8/library/core/src/str/mod.rs:101
80203d6a: 2a ec        	sd	a0, 24(sp)
80203d6c: 2e f0        	sd	a1, 32(sp)

0000000080203d6e <.LBB280_49>:
; .LBB280_49():
80203d6e: 97 77 00 00  	auipc	a5, 7
80203d72: 93 87 a7 15  	addi	a5, a5, 346
; /rustc/ecd44958e0a21110d09862ee080d95a4ca6c52f8/library/core/src/str/mod.rs:102
80203d76: 3e f4        	sd	a5, 40(sp)
; /rustc/ecd44958e0a21110d09862ee080d95a4ca6c52f8/library/core/src/str/mod.rs:105
80203d78: b3 b7 c5 00  	sltu	a5, a1, a2
80203d7c: 33 b7 d5 00  	sltu	a4, a1, a3
80203d80: 5d 8f        	or	a4, a4, a5
; /rustc/ecd44958e0a21110d09862ee080d95a4ca6c52f8/library/core/src/str/mod.rs:102
80203d82: 42 f8        	sd	a6, 48(sp)
; /rustc/ecd44958e0a21110d09862ee080d95a4ca6c52f8/library/core/src/str/mod.rs:105
80203d84: 39 cb        	beqz	a4, 0x80203dda <.LBB280_53+0x14>
80203d86: 63 e3 c5 00  	bltu	a1, a2, 0x80203d8c <.LBB280_49+0x1e>
80203d8a: 36 86        	mv	a2, a3
80203d8c: b2 e4        	sd	a2, 72(sp)
80203d8e: a8 00        	addi	a0, sp, 72
; /rustc/ecd44958e0a21110d09862ee080d95a4ca6c52f8/library/core/src/str/mod.rs:107
80203d90: 2a e5        	sd	a0, 136(sp)

0000000080203d92 <.LBB280_50>:
; .LBB280_50():
; /rustc/ecd44958e0a21110d09862ee080d95a4ca6c52f8/library/core/src/str/mod.rs:107
80203d92: 17 05 00 00  	auipc	a0, 0
80203d96: 13 05 25 7a  	addi	a0, a0, 1954
80203d9a: 2a e9        	sd	a0, 144(sp)
80203d9c: 28 08        	addi	a0, sp, 24
80203d9e: 2a ed        	sd	a0, 152(sp)

0000000080203da0 <.LBB280_51>:
; .LBB280_51():
; /rustc/ecd44958e0a21110d09862ee080d95a4ca6c52f8/library/core/src/str/mod.rs:107
80203da0: 17 15 00 00  	auipc	a0, 1
80203da4: 13 05 65 89  	addi	a0, a0, -1898
80203da8: 2a f1        	sd	a0, 160(sp)
80203daa: 2c 10        	addi	a1, sp, 40
80203dac: 2e f5        	sd	a1, 168(sp)
80203dae: 2a f9        	sd	a0, 176(sp)

0000000080203db0 <.LBB280_52>:
; .LBB280_52():
; /rustc/ecd44958e0a21110d09862ee080d95a4ca6c52f8/library/core/src/fmt/mod.rs:392
80203db0: 17 75 00 00  	auipc	a0, 7
80203db4: 13 05 05 64  	addi	a0, a0, 1600
80203db8: aa ec        	sd	a0, 88(sp)
80203dba: 0d 45        	li	a0, 3
80203dbc: aa f0        	sd	a0, 96(sp)
80203dbe: 82 f4        	sd	zero, 104(sp)
80203dc0: 2c 01        	addi	a1, sp, 136
80203dc2: ae fc        	sd	a1, 120(sp)
80203dc4: 2a e1        	sd	a0, 128(sp)

0000000080203dc6 <.LBB280_53>:
; .LBB280_53():
; /rustc/ecd44958e0a21110d09862ee080d95a4ca6c52f8/library/core/src/str/mod.rs:107
80203dc6: 97 75 00 00  	auipc	a1, 7
80203dca: 93 85 a5 65  	addi	a1, a1, 1626
80203dce: a8 08        	addi	a0, sp, 88
80203dd0: 97 e0 ff ff  	auipc	ra, 1048574
80203dd4: e7 80 60 7f  	jalr	2038(ra)
80203dd8: 00 00        	unimp	
; /rustc/ecd44958e0a21110d09862ee080d95a4ca6c52f8/library/core/src/str/mod.rs:111
80203dda: 63 fb c6 04  	bgeu	a3, a2, 0x80203e30 <.LBB280_57+0x14>
80203dde: 28 00        	addi	a0, sp, 8
; /rustc/ecd44958e0a21110d09862ee080d95a4ca6c52f8/library/core/src/str/mod.rs:111
80203de0: 2a e5        	sd	a0, 136(sp)

0000000080203de2 <.LBB280_54>:
; .LBB280_54():
; /rustc/ecd44958e0a21110d09862ee080d95a4ca6c52f8/library/core/src/str/mod.rs:111
80203de2: 17 05 00 00  	auipc	a0, 0
80203de6: 13 05 25 75  	addi	a0, a0, 1874
80203dea: 2a e9        	sd	a0, 144(sp)
80203dec: 0c 08        	addi	a1, sp, 16
80203dee: 2e ed        	sd	a1, 152(sp)
80203df0: 2a f1        	sd	a0, 160(sp)
80203df2: 28 08        	addi	a0, sp, 24
80203df4: 2a f5        	sd	a0, 168(sp)

0000000080203df6 <.LBB280_55>:
; .LBB280_55():
; /rustc/ecd44958e0a21110d09862ee080d95a4ca6c52f8/library/core/src/str/mod.rs:111
80203df6: 17 15 00 00  	auipc	a0, 1
80203dfa: 13 05 05 84  	addi	a0, a0, -1984
80203dfe: 2a f9        	sd	a0, 176(sp)
80203e00: 2c 10        	addi	a1, sp, 40
80203e02: 2e fd        	sd	a1, 184(sp)
80203e04: aa e1        	sd	a0, 192(sp)

0000000080203e06 <.LBB280_56>:
; .LBB280_56():
; /rustc/ecd44958e0a21110d09862ee080d95a4ca6c52f8/library/core/src/fmt/mod.rs:392
80203e06: 17 75 00 00  	auipc	a0, 7
80203e0a: 13 05 25 64  	addi	a0, a0, 1602
80203e0e: aa ec        	sd	a0, 88(sp)
80203e10: 11 45        	li	a0, 4
80203e12: aa f0        	sd	a0, 96(sp)
80203e14: 82 f4        	sd	zero, 104(sp)
80203e16: 2c 01        	addi	a1, sp, 136
80203e18: ae fc        	sd	a1, 120(sp)
80203e1a: 2a e1        	sd	a0, 128(sp)

0000000080203e1c <.LBB280_57>:
; .LBB280_57():
; /rustc/ecd44958e0a21110d09862ee080d95a4ca6c52f8/library/core/src/str/mod.rs:111
80203e1c: 97 75 00 00  	auipc	a1, 7
80203e20: 93 85 c5 66  	addi	a1, a1, 1644
80203e24: a8 08        	addi	a0, sp, 88
80203e26: 97 e0 ff ff  	auipc	ra, 1048574
80203e2a: e7 80 00 7a  	jalr	1952(ra)
80203e2e: 00 00        	unimp	
80203e30: 15 ee        	bnez	a2, 0x80203e6c <.LBB280_57+0x50>
80203e32: 36 86        	mv	a2, a3
80203e34: 32 fc        	sd	a2, 56(sp)
80203e36: ae 86        	mv	a3, a1
; /rustc/ecd44958e0a21110d09862ee080d95a4ca6c52f8/library/core/src/str/mod.rs:257
80203e38: 63 75 b6 06  	bgeu	a2, a1, 0x80203ea2 <.LBB280_57+0x86>
; /rustc/ecd44958e0a21110d09862ee080d95a4ca6c52f8/library/core/src/num/uint_macros.rs:1092
80203e3c: 13 07 d6 ff  	addi	a4, a2, -3
80203e40: 01 48        	li	a6, 0
80203e42: 63 63 e6 00  	bltu	a2, a4, 0x80203e48 <.LBB280_57+0x2c>
80203e46: 3a 88        	mv	a6, a4
; /rustc/ecd44958e0a21110d09862ee080d95a4ca6c52f8/library/core/src/ops/range.rs:453
80203e48: 13 07 16 00  	addi	a4, a2, 1
; /rustc/ecd44958e0a21110d09862ee080d95a4ca6c52f8/library/core/src/slice/index.rs:301
80203e4c: 63 7b 07 03  	bgeu	a4, a6, 0x80203e82 <.LBB280_57+0x66>
; /rustc/ecd44958e0a21110d09862ee080d95a4ca6c52f8/library/core/src/slice/index.rs:302
80203e50: 42 85        	mv	a0, a6
80203e52: ba 85        	mv	a1, a4
80203e54: 97 00 00 00  	auipc	ra, 0
80203e58: e7 80 a0 a8  	jalr	-1398(ra)
80203e5c: 00 00        	unimp	
; /rustc/ecd44958e0a21110d09862ee080d95a4ca6c52f8/library/core/src/str/traits.rs:294
80203e5e: 01 46        	li	a2, 0
80203e60: ba 86        	mv	a3, a4
80203e62: 97 00 00 00  	auipc	ra, 0
80203e66: e7 80 60 e9  	jalr	-362(ra)
80203e6a: 00 00        	unimp	
80203e6c: 63 7d b6 04  	bgeu	a2, a1, 0x80203ec6 <.LBB280_57+0xaa>
80203e70: 33 07 c5 00  	add	a4, a0, a2
; /rustc/ecd44958e0a21110d09862ee080d95a4ca6c52f8/library/core/src/str/mod.rs:230
80203e74: 03 07 07 00  	lb	a4, 0(a4)
80203e78: 93 07 00 fc  	li	a5, -64
; /rustc/ecd44958e0a21110d09862ee080d95a4ca6c52f8/library/core/src/str/mod.rs:121
80203e7c: e3 5b f7 fa  	bge	a4, a5, 0x80203e32 <.LBB280_57+0x16>
80203e80: 55 bf        	j	0x80203e34 <.LBB280_57+0x18>
; /rustc/ecd44958e0a21110d09862ee080d95a4ca6c52f8/library/core/src/ptr/const_ptr.rs:455
80203e82: b3 07 05 01  	add	a5, a0, a6
80203e86: 2a 97        	add	a4, a4, a0
; /rustc/ecd44958e0a21110d09862ee080d95a4ca6c52f8/library/core/src/slice/iter/macros.rs:314
80203e88: 1d 8f        	sub	a4, a4, a5
; /rustc/ecd44958e0a21110d09862ee080d95a4ca6c52f8/library/core/src/slice/iter/macros.rs:316
80203e8a: 2a 96        	add	a2, a2, a0
80203e8c: 93 07 00 fc  	li	a5, -64
; /rustc/ecd44958e0a21110d09862ee080d95a4ca6c52f8/library/core/src/slice/iter/macros.rs:361
80203e90: 19 c7        	beqz	a4, 0x80203e9e <.LBB280_57+0x82>
; /rustc/ecd44958e0a21110d09862ee080d95a4ca6c52f8/library/core/src/slice/iter/macros.rs:318
80203e92: 83 06 06 00  	lb	a3, 0(a2)
; /rustc/ecd44958e0a21110d09862ee080d95a4ca6c52f8/library/core/src/slice/iter/macros.rs:317
80203e96: 7d 17        	addi	a4, a4, -1
; /rustc/ecd44958e0a21110d09862ee080d95a4ca6c52f8/library/core/src/slice/iter/macros.rs:318
80203e98: 7d 16        	addi	a2, a2, -1
80203e9a: e3 cb f6 fe  	blt	a3, a5, 0x80203e90 <.LBB280_57+0x74>
; /rustc/ecd44958e0a21110d09862ee080d95a4ca6c52f8/library/core/src/str/mod.rs:266
80203e9e: b3 06 07 01  	add	a3, a4, a6
; /rustc/ecd44958e0a21110d09862ee080d95a4ca6c52f8/library/core/src/str/mod.rs:214
80203ea2: 9d c6        	beqz	a3, 0x80203ed0 <.LBB280_57+0xb4>
; /rustc/ecd44958e0a21110d09862ee080d95a4ca6c52f8/library/core/src/str/mod.rs:218
80203ea4: 63 f4 b6 02  	bgeu	a3, a1, 0x80203ecc <.LBB280_57+0xb0>
80203ea8: 33 06 d5 00  	add	a2, a0, a3
; /rustc/ecd44958e0a21110d09862ee080d95a4ca6c52f8/library/core/src/str/mod.rs:230
80203eac: 03 06 06 00  	lb	a2, 0(a2)
80203eb0: 13 07 f0 fb  	li	a4, -65
; /rustc/ecd44958e0a21110d09862ee080d95a4ca6c52f8/library/core/src/str/traits.rs:330
80203eb4: 63 4e c7 00  	blt	a4, a2, 0x80203ed0 <.LBB280_57+0xb4>
; /rustc/ecd44958e0a21110d09862ee080d95a4ca6c52f8/library/core/src/str/traits.rs:370
80203eb8: 36 86        	mv	a2, a3
80203eba: ae 86        	mv	a3, a1
80203ebc: 97 00 00 00  	auipc	ra, 0
80203ec0: e7 80 c0 e3  	jalr	-452(ra)
80203ec4: 00 00        	unimp	
; /rustc/ecd44958e0a21110d09862ee080d95a4ca6c52f8/library/core/src/str/mod.rs:121
80203ec6: e3 86 c5 f6  	beq	a1, a2, 0x80203e32 <.LBB280_57+0x16>
80203eca: ad b7        	j	0x80203e34 <.LBB280_57+0x18>
; /rustc/ecd44958e0a21110d09862ee080d95a4ca6c52f8/library/core/src/str/traits.rs:330
80203ecc: e3 96 b6 fe  	bne	a3, a1, 0x80203eb8 <.LBB280_57+0x9c>
; /rustc/ecd44958e0a21110d09862ee080d95a4ca6c52f8/library/core/src/slice/iter/macros.rs:146
80203ed0: 63 91 b6 02  	bne	a3, a1, 0x80203ef2 <.LBB280_59+0x16>

0000000080203ed4 <.LBB280_58>:
; .LBB280_58():
; /rustc/ecd44958e0a21110d09862ee080d95a4ca6c52f8/library/core/src/option.rs:755
80203ed4: 17 75 00 00  	auipc	a0, 7
80203ed8: 13 05 c5 06  	addi	a0, a0, 108

0000000080203edc <.LBB280_59>:
; .LBB280_59():
; /rustc/ecd44958e0a21110d09862ee080d95a4ca6c52f8/library/core/src/option.rs:755
80203edc: 17 76 00 00  	auipc	a2, 7
80203ee0: 13 06 46 5c  	addi	a2, a2, 1476
80203ee4: 93 05 b0 02  	li	a1, 43
80203ee8: 97 e0 ff ff  	auipc	ra, 1048574
80203eec: e7 80 20 67  	jalr	1650(ra)
80203ef0: 00 00        	unimp	
80203ef2: 36 95        	add	a0, a0, a3
; /rustc/ecd44958e0a21110d09862ee080d95a4ca6c52f8/library/core/src/str/validations.rs:38
80203ef4: 03 06 05 00  	lb	a2, 0(a0)
80203ef8: 93 75 f6 0f  	andi	a1, a2, 255
; /rustc/ecd44958e0a21110d09862ee080d95a4ca6c52f8/library/core/src/str/validations.rs:39
80203efc: 63 45 06 00  	bltz	a2, 0x80203f06 <.LBB280_59+0x2a>
; /rustc/ecd44958e0a21110d09862ee080d95a4ca6c52f8/library/core/src/str/mod.rs:125
80203f00: ae c2        	sw	a1, 68(sp)
80203f02: 85 45        	li	a1, 1
80203f04: 9d a8        	j	0x80203f7a <.LBB280_59+0x9e>
; /rustc/ecd44958e0a21110d09862ee080d95a4ca6c52f8/library/core/src/str/validations.rs:49
80203f06: 03 47 15 00  	lbu	a4, 1(a0)
; /rustc/ecd44958e0a21110d09862ee080d95a4ca6c52f8/library/core/src/str/validations.rs:12
80203f0a: 13 f6 f5 01  	andi	a2, a1, 31
80203f0e: 93 07 f0 0d  	li	a5, 223
; /rustc/ecd44958e0a21110d09862ee080d95a4ca6c52f8/library/core/src/str/validations.rs:18
80203f12: 13 77 f7 03  	andi	a4, a4, 63
; /rustc/ecd44958e0a21110d09862ee080d95a4ca6c52f8/library/core/src/str/validations.rs:51
80203f16: 63 fc b7 02  	bgeu	a5, a1, 0x80203f4e <.LBB280_59+0x72>
; /rustc/ecd44958e0a21110d09862ee080d95a4ca6c52f8/library/core/src/str/validations.rs:56
80203f1a: 83 47 25 00  	lbu	a5, 2(a0)
; /rustc/ecd44958e0a21110d09862ee080d95a4ca6c52f8/library/core/src/str/validations.rs:18
80203f1e: 1a 07        	slli	a4, a4, 6
80203f20: 93 f7 f7 03  	andi	a5, a5, 63
80203f24: 13 08 00 0f  	li	a6, 240
80203f28: 5d 8f        	or	a4, a4, a5
; /rustc/ecd44958e0a21110d09862ee080d95a4ca6c52f8/library/core/src/str/validations.rs:59
80203f2a: 63 e6 05 03  	bltu	a1, a6, 0x80203f56 <.LBB280_59+0x7a>
; /rustc/ecd44958e0a21110d09862ee080d95a4ca6c52f8/library/core/src/str/validations.rs:64
80203f2e: 03 45 35 00  	lbu	a0, 3(a0)
; /rustc/ecd44958e0a21110d09862ee080d95a4ca6c52f8/library/core/src/str/validations.rs:65
80203f32: 93 15 d6 03  	slli	a1, a2, 61
80203f36: ad 91        	srli	a1, a1, 43
; /rustc/ecd44958e0a21110d09862ee080d95a4ca6c52f8/library/core/src/str/validations.rs:18
80203f38: 13 16 67 00  	slli	a2, a4, 6
80203f3c: 13 75 f5 03  	andi	a0, a0, 63
80203f40: 51 8d        	or	a0, a0, a2
; /rustc/ecd44958e0a21110d09862ee080d95a4ca6c52f8/library/core/src/str/validations.rs:65
80203f42: 4d 8d        	or	a0, a0, a1
80203f44: b7 05 11 00  	lui	a1, 272
; /rustc/ecd44958e0a21110d09862ee080d95a4ca6c52f8/library/core/src/option.rs:753
80203f48: e3 06 b5 f8  	beq	a0, a1, 0x80203ed4 <.LBB280_58>
80203f4c: 01 a8        	j	0x80203f5c <.LBB280_59+0x80>
80203f4e: 13 15 66 00  	slli	a0, a2, 6
80203f52: 59 8d        	or	a0, a0, a4
80203f54: 21 a0        	j	0x80203f5c <.LBB280_59+0x80>
80203f56: 13 15 c6 00  	slli	a0, a2, 12
80203f5a: 59 8d        	or	a0, a0, a4
; /rustc/ecd44958e0a21110d09862ee080d95a4ca6c52f8/library/core/src/str/mod.rs:125
80203f5c: aa c2        	sw	a0, 68(sp)
80203f5e: 13 06 00 08  	li	a2, 128
80203f62: 85 45        	li	a1, 1
; /rustc/ecd44958e0a21110d09862ee080d95a4ca6c52f8/library/core/src/char/methods.rs:1638
80203f64: 63 6b c5 00  	bltu	a0, a2, 0x80203f7a <.LBB280_59+0x9e>
; /rustc/ecd44958e0a21110d09862ee080d95a4ca6c52f8/library/core/src/char/methods.rs:1640
80203f68: 13 56 b5 00  	srli	a2, a0, 11
80203f6c: 89 45        	li	a1, 2
80203f6e: 11 c6        	beqz	a2, 0x80203f7a <.LBB280_59+0x9e>
; /rustc/ecd44958e0a21110d09862ee080d95a4ca6c52f8/library/core/src/char/methods.rs:1642
80203f70: 41 81        	srli	a0, a0, 16
80203f72: 13 35 15 00  	seqz	a0, a0
80203f76: 91 45        	li	a1, 4
80203f78: 89 8d        	sub	a1, a1, a0
; /rustc/ecd44958e0a21110d09862ee080d95a4ca6c52f8/library/core/src/str/mod.rs:126
80203f7a: 33 85 d5 00  	add	a0, a1, a3
80203f7e: b6 e4        	sd	a3, 72(sp)
80203f80: aa e8        	sd	a0, 80(sp)
80203f82: 28 18        	addi	a0, sp, 56
; /rustc/ecd44958e0a21110d09862ee080d95a4ca6c52f8/library/core/src/str/mod.rs:127
80203f84: 2a e5        	sd	a0, 136(sp)

0000000080203f86 <.LBB280_60>:
; .LBB280_60():
; /rustc/ecd44958e0a21110d09862ee080d95a4ca6c52f8/library/core/src/str/mod.rs:127
80203f86: 17 05 00 00  	auipc	a0, 0
80203f8a: 13 05 e5 5a  	addi	a0, a0, 1454
80203f8e: 2a e9        	sd	a0, 144(sp)
80203f90: c8 00        	addi	a0, sp, 68
80203f92: 2a ed        	sd	a0, 152(sp)

0000000080203f94 <.LBB280_61>:
; .LBB280_61():
; /rustc/ecd44958e0a21110d09862ee080d95a4ca6c52f8/library/core/src/str/mod.rs:127
80203f94: 17 f5 ff ff  	auipc	a0, 1048575
80203f98: 13 05 e5 6f  	addi	a0, a0, 1790
80203f9c: 2a f1        	sd	a0, 160(sp)
80203f9e: a8 00        	addi	a0, sp, 72
80203fa0: 2a f5        	sd	a0, 168(sp)

0000000080203fa2 <.LBB280_62>:
; .LBB280_62():
; /rustc/ecd44958e0a21110d09862ee080d95a4ca6c52f8/library/core/src/str/mod.rs:127
80203fa2: 17 e5 ff ff  	auipc	a0, 1048574
80203fa6: 13 05 05 31  	addi	a0, a0, 784
80203faa: 2a f9        	sd	a0, 176(sp)
80203fac: 28 08        	addi	a0, sp, 24
80203fae: 2a fd        	sd	a0, 184(sp)

0000000080203fb0 <.LBB280_63>:
; .LBB280_63():
; /rustc/ecd44958e0a21110d09862ee080d95a4ca6c52f8/library/core/src/str/mod.rs:127
80203fb0: 17 05 00 00  	auipc	a0, 0
80203fb4: 13 05 65 68  	addi	a0, a0, 1670
80203fb8: aa e1        	sd	a0, 192(sp)
80203fba: 2c 10        	addi	a1, sp, 40
80203fbc: ae e5        	sd	a1, 200(sp)
80203fbe: aa e9        	sd	a0, 208(sp)

0000000080203fc0 <.LBB280_64>:
; .LBB280_64():
; /rustc/ecd44958e0a21110d09862ee080d95a4ca6c52f8/library/core/src/fmt/mod.rs:392
80203fc0: 17 75 00 00  	auipc	a0, 7
80203fc4: 13 05 85 52  	addi	a0, a0, 1320
80203fc8: aa ec        	sd	a0, 88(sp)
80203fca: 15 45        	li	a0, 5
80203fcc: aa f0        	sd	a0, 96(sp)
80203fce: 82 f4        	sd	zero, 104(sp)
80203fd0: 2c 01        	addi	a1, sp, 136
80203fd2: ae fc        	sd	a1, 120(sp)
80203fd4: 2a e1        	sd	a0, 128(sp)

0000000080203fd6 <.LBB280_65>:
; .LBB280_65():
; /rustc/ecd44958e0a21110d09862ee080d95a4ca6c52f8/library/core/src/str/mod.rs:127
80203fd6: 97 75 00 00  	auipc	a1, 7
80203fda: 93 85 25 56  	addi	a1, a1, 1378
80203fde: a8 08        	addi	a0, sp, 88
80203fe0: 97 e0 ff ff  	auipc	ra, 1048574
80203fe4: e7 80 60 5e  	jalr	1510(ra)
80203fe8: 00 00        	unimp	

0000000080203fea <_ZN4core7unicode9printable5check17h6711edd46309b1b1E>:
; _ZN4core7unicode9printable5check17h6711edd46309b1b1E():
; /rustc/ecd44958e0a21110d09862ee080d95a4ca6c52f8/library/core/src/unicode/printable.rs:4
80203fea: 41 11        	addi	sp, sp, -16
; /rustc/ecd44958e0a21110d09862ee080d95a4ca6c52f8/library/core/src/unicode/printable.rs:5
80203fec: 06 e4        	sd	ra, 8(sp)
80203fee: 93 12 05 03  	slli	t0, a0, 48
; /rustc/ecd44958e0a21110d09862ee080d95a4ca6c52f8/library/core/src/slice/iter/macros.rs:146
80203ff2: 29 ce        	beqz	a2, 0x8020404c <_ZN4core7unicode9printable5check17h6711edd46309b1b1E+0x62>
80203ff4: aa 88        	mv	a7, a0
80203ff6: 01 45        	li	a0, 0
80203ff8: 13 d3 82 03  	srli	t1, t0, 56
80203ffc: 06 06        	slli	a2, a2, 1
80203ffe: b3 83 c5 00  	add	t2, a1, a2
80204002: 13 fe f8 0f  	andi	t3, a7, 255
80204006: 11 a8        	j	0x8020401a <_ZN4core7unicode9printable5check17h6711edd46309b1b1E+0x30>
; /rustc/ecd44958e0a21110d09862ee080d95a4ca6c52f8/library/core/src/unicode/printable.rs:15
80204008: 33 35 d3 01  	sltu	a0, t1, t4
8020400c: 33 c6 75 00  	xor	a2, a1, t2
80204010: 13 36 16 00  	seqz	a2, a2
80204014: 49 8e        	or	a2, a2, a0
80204016: 46 85        	mv	a0, a7
80204018: 15 ea        	bnez	a2, 0x8020404c <_ZN4core7unicode9printable5check17h6711edd46309b1b1E+0x62>
; /rustc/ecd44958e0a21110d09862ee080d95a4ca6c52f8/library/core/src/unicode/printable.rs:7
8020401a: 83 ce 05 00  	lbu	t4, 0(a1)
8020401e: 03 c6 15 00  	lbu	a2, 1(a1)
; /rustc/ecd44958e0a21110d09862ee080d95a4ca6c52f8/library/core/src/ptr/non_null.rs:198
80204022: 89 05        	addi	a1, a1, 2
; /rustc/ecd44958e0a21110d09862ee080d95a4ca6c52f8/library/core/src/unicode/printable.rs:8
80204024: b3 08 c5 00  	add	a7, a0, a2
; /rustc/ecd44958e0a21110d09862ee080d95a4ca6c52f8/library/core/src/unicode/printable.rs:9
80204028: e3 90 6e fe  	bne	t4, t1, 0x80204008 <_ZN4core7unicode9printable5check17h6711edd46309b1b1E+0x1e>
; /rustc/ecd44958e0a21110d09862ee080d95a4ca6c52f8/library/core/src/slice/index.rs:301
8020402c: 63 e1 a8 0a  	bltu	a7, a0, 0x802040ce <.LBB299_24+0x16>
; /rustc/ecd44958e0a21110d09862ee080d95a4ca6c52f8/library/core/src/slice/index.rs:303
80204030: 63 65 17 0b  	bltu	a4, a7, 0x802040da <.LBB299_24+0x22>
; /rustc/ecd44958e0a21110d09862ee080d95a4ca6c52f8/library/core/src/ptr/const_ptr.rs:455
80204034: 36 95        	add	a0, a0, a3
; /rustc/ecd44958e0a21110d09862ee080d95a4ca6c52f8/library/core/src/slice/iter/macros.rs:146
80204036: 01 ca        	beqz	a2, 0x80204046 <_ZN4core7unicode9printable5check17h6711edd46309b1b1E+0x5c>
; /rustc/ecd44958e0a21110d09862ee080d95a4ca6c52f8/library/core/src/unicode/printable.rs:10
80204038: 83 4e 05 00  	lbu	t4, 0(a0)
; /rustc/ecd44958e0a21110d09862ee080d95a4ca6c52f8/library/core/src/ptr/mut_ptr.rs:467
8020403c: 05 05        	addi	a0, a0, 1
; /rustc/ecd44958e0a21110d09862ee080d95a4ca6c52f8/library/core/src/unicode/printable.rs:11
8020403e: 7d 16        	addi	a2, a2, -1
80204040: e3 9b ce ff  	bne	t4, t3, 0x80204036 <_ZN4core7unicode9printable5check17h6711edd46309b1b1E+0x4c>
80204044: a1 a8        	j	0x8020409c <_ZN4core7unicode9printable5check17h6711edd46309b1b1E+0xb2>
80204046: 46 85        	mv	a0, a7
; /rustc/ecd44958e0a21110d09862ee080d95a4ca6c52f8/library/core/src/slice/iter/macros.rs:146
80204048: e3 99 75 fc  	bne	a1, t2, 0x8020401a <_ZN4core7unicode9printable5check17h6711edd46309b1b1E+0x30>
8020404c: 63 0d 08 04  	beqz	a6, 0x802040a6 <_ZN4core7unicode9printable5check17h6711edd46309b1b1E+0xbc>
80204050: b3 85 07 01  	add	a1, a5, a6
; /rustc/ecd44958e0a21110d09862ee080d95a4ca6c52f8/library/core/src/unicode/printable.rs:21
80204054: 13 d6 02 03  	srli	a2, t0, 48
80204058: 05 45        	li	a0, 1
; /rustc/ecd44958e0a21110d09862ee080d95a4ca6c52f8/library/core/src/option.rs:1761
8020405a: 83 86 07 00  	lb	a3, 0(a5)
; /rustc/ecd44958e0a21110d09862ee080d95a4ca6c52f8/library/core/src/ptr/mut_ptr.rs:467
8020405e: 13 87 17 00  	addi	a4, a5, 1
; /rustc/ecd44958e0a21110d09862ee080d95a4ca6c52f8/library/core/src/unicode/printable.rs:25
80204062: 63 c9 06 00  	bltz	a3, 0x80204074 <_ZN4core7unicode9printable5check17h6711edd46309b1b1E+0x8a>
; /rustc/ecd44958e0a21110d09862ee080d95a4ca6c52f8/library/core/src/unicode/printable.rs:28
80204066: 93 f6 f6 0f  	andi	a3, a3, 255
8020406a: ba 87        	mv	a5, a4
; /rustc/ecd44958e0a21110d09862ee080d95a4ca6c52f8/library/core/src/unicode/printable.rs:30
8020406c: 15 9e        	subw	a2, a2, a3
8020406e: 63 5f 06 00  	bgez	a2, 0x8020408c <_ZN4core7unicode9printable5check17h6711edd46309b1b1E+0xa2>
80204072: 0d a0        	j	0x80204094 <_ZN4core7unicode9printable5check17h6711edd46309b1b1E+0xaa>
; /rustc/ecd44958e0a21110d09862ee080d95a4ca6c52f8/library/core/src/slice/iter/macros.rs:146
80204074: 63 0e b7 02  	beq	a4, a1, 0x802040b0 <.LBB299_23>
; /rustc/ecd44958e0a21110d09862ee080d95a4ca6c52f8/library/core/src/option.rs:1761
80204078: 03 c7 17 00  	lbu	a4, 1(a5)
; /rustc/ecd44958e0a21110d09862ee080d95a4ca6c52f8/library/core/src/unicode/printable.rs:26
8020407c: 93 f6 f6 07  	andi	a3, a3, 127
80204080: a2 06        	slli	a3, a3, 8
; /rustc/ecd44958e0a21110d09862ee080d95a4ca6c52f8/library/core/src/ptr/mut_ptr.rs:467
80204082: 89 07        	addi	a5, a5, 2
; /rustc/ecd44958e0a21110d09862ee080d95a4ca6c52f8/library/core/src/unicode/printable.rs:26
80204084: d9 8e        	or	a3, a3, a4
; /rustc/ecd44958e0a21110d09862ee080d95a4ca6c52f8/library/core/src/unicode/printable.rs:30
80204086: 15 9e        	subw	a2, a2, a3
; /rustc/ecd44958e0a21110d09862ee080d95a4ca6c52f8/library/core/src/unicode/printable.rs:31
80204088: 63 46 06 00  	bltz	a2, 0x80204094 <_ZN4core7unicode9printable5check17h6711edd46309b1b1E+0xaa>
; /rustc/ecd44958e0a21110d09862ee080d95a4ca6c52f8/library/core/src/unicode/printable.rs:34
8020408c: 13 45 15 00  	xori	a0, a0, 1
; /rustc/ecd44958e0a21110d09862ee080d95a4ca6c52f8/library/core/src/slice/iter/macros.rs:146
80204090: e3 95 b7 fc  	bne	a5, a1, 0x8020405a <_ZN4core7unicode9printable5check17h6711edd46309b1b1E+0x70>
; /rustc/ecd44958e0a21110d09862ee080d95a4ca6c52f8/library/core/src/unicode/printable.rs:37
80204094: 05 89        	andi	a0, a0, 1
80204096: a2 60        	ld	ra, 8(sp)
80204098: 41 01        	addi	sp, sp, 16
8020409a: 82 80        	ret
8020409c: 01 45        	li	a0, 0
; /rustc/ecd44958e0a21110d09862ee080d95a4ca6c52f8/library/core/src/unicode/printable.rs:37
8020409e: 05 89        	andi	a0, a0, 1
802040a0: a2 60        	ld	ra, 8(sp)
802040a2: 41 01        	addi	sp, sp, 16
802040a4: 82 80        	ret
802040a6: 05 45        	li	a0, 1
; /rustc/ecd44958e0a21110d09862ee080d95a4ca6c52f8/library/core/src/unicode/printable.rs:37
802040a8: 05 89        	andi	a0, a0, 1
802040aa: a2 60        	ld	ra, 8(sp)
802040ac: 41 01        	addi	sp, sp, 16
802040ae: 82 80        	ret

00000000802040b0 <.LBB299_23>:
; .LBB299_23():
; /rustc/ecd44958e0a21110d09862ee080d95a4ca6c52f8/library/core/src/option.rs:755
802040b0: 17 75 00 00  	auipc	a0, 7
802040b4: 13 05 05 e9  	addi	a0, a0, -368

00000000802040b8 <.LBB299_24>:
; .LBB299_24():
; /rustc/ecd44958e0a21110d09862ee080d95a4ca6c52f8/library/core/src/option.rs:755
802040b8: 17 76 00 00  	auipc	a2, 7
802040bc: 13 06 06 4c  	addi	a2, a2, 1216
802040c0: 93 05 b0 02  	li	a1, 43
802040c4: 97 e0 ff ff  	auipc	ra, 1048574
802040c8: e7 80 60 49  	jalr	1174(ra)
802040cc: 00 00        	unimp	
; /rustc/ecd44958e0a21110d09862ee080d95a4ca6c52f8/library/core/src/slice/index.rs:302
802040ce: c6 85        	mv	a1, a7
802040d0: 97 00 00 00  	auipc	ra, 0
802040d4: e7 80 e0 80  	jalr	-2034(ra)
802040d8: 00 00        	unimp	
; /rustc/ecd44958e0a21110d09862ee080d95a4ca6c52f8/library/core/src/slice/index.rs:304
802040da: 46 85        	mv	a0, a7
802040dc: ba 85        	mv	a1, a4
802040de: 97 f0 ff ff  	auipc	ra, 1048575
802040e2: e7 80 c0 7a  	jalr	1964(ra)
802040e6: 00 00        	unimp	

00000000802040e8 <_ZN4core3fmt3num55_$LT$impl$u20$core..fmt..LowerHex$u20$for$u20$usize$GT$3fmt17h88eb0bd120c7a65eE>:
; _ZN4core3fmt3num53_$LT$impl$u20$core..fmt..LowerHex$u20$for$u20$u64$GT$3fmt17he9291398ca9660e5E():
; /rustc/ecd44958e0a21110d09862ee080d95a4ca6c52f8/library/core/src/fmt/num.rs:154
802040e8: 75 71        	addi	sp, sp, -144
802040ea: 06 e5        	sd	ra, 136(sp)
802040ec: 2e 88        	mv	a6, a1
802040ee: 81 45        	li	a1, 0
; /rustc/ecd44958e0a21110d09862ee080d95a4ca6c52f8/library/core/src/fmt/num.rs:155
802040f0: 18 61        	ld	a4, 0(a0)
802040f2: 93 08 81 00  	addi	a7, sp, 8
802040f6: a9 42        	li	t0, 10
802040f8: 3d 43        	li	t1, 15
802040fa: 19 a8        	j	0x80204110 <_ZN4core3fmt3num55_$LT$impl$u20$core..fmt..LowerHex$u20$for$u20$usize$GT$3fmt17h88eb0bd120c7a65eE+0x28>
802040fc: b3 86 b8 00  	add	a3, a7, a1
80204100: 13 57 45 00  	srli	a4, a0, 4
80204104: 3d 9e        	addw	a2, a2, a5
; /rustc/ecd44958e0a21110d09862ee080d95a4ca6c52f8/library/core/src/mem/maybe_uninit.rs:496
80204106: a3 8f c6 06  	sb	a2, 127(a3)
; /rustc/ecd44958e0a21110d09862ee080d95a4ca6c52f8/library/core/src/fmt/num.rs:83
8020410a: fd 15        	addi	a1, a1, -1
8020410c: 63 7c a3 00  	bgeu	t1, a0, 0x80204124 <_ZN4core3fmt3num55_$LT$impl$u20$core..fmt..LowerHex$u20$for$u20$usize$GT$3fmt17h88eb0bd120c7a65eE+0x3c>
80204110: 3a 85        	mv	a0, a4
; /rustc/ecd44958e0a21110d09862ee080d95a4ca6c52f8/library/core/src/fmt/num.rs:42
80204112: 93 77 f7 00  	andi	a5, a4, 15
80204116: 13 06 00 03  	li	a2, 48
; /rustc/ecd44958e0a21110d09862ee080d95a4ca6c52f8/library/core/src/fmt/num.rs:147
8020411a: e3 e1 57 fe  	bltu	a5, t0, 0x802040fc <_ZN4core3fmt3num55_$LT$impl$u20$core..fmt..LowerHex$u20$for$u20$usize$GT$3fmt17h88eb0bd120c7a65eE+0x14>
8020411e: 13 06 70 05  	li	a2, 87
80204122: e9 bf        	j	0x802040fc <_ZN4core3fmt3num55_$LT$impl$u20$core..fmt..LowerHex$u20$for$u20$usize$GT$3fmt17h88eb0bd120c7a65eE+0x14>
; /rustc/ecd44958e0a21110d09862ee080d95a4ca6c52f8/library/core/src/slice/index.rs:389
80204124: 13 85 05 08  	addi	a0, a1, 128
80204128: 13 06 10 08  	li	a2, 129
8020412c: 63 76 c5 02  	bgeu	a0, a2, 0x80204158 <.LBB514_7+0x1c>
; /rustc/ecd44958e0a21110d09862ee080d95a4ca6c52f8/library/core/src/ptr/metadata.rs:117
80204130: b3 07 b0 40  	neg	a5, a1
80204134: 28 00        	addi	a0, sp, 8
; /rustc/ecd44958e0a21110d09862ee080d95a4ca6c52f8/library/core/src/fmt/num.rs:110
80204136: 2e 95        	add	a0, a0, a1
80204138: 13 07 05 08  	addi	a4, a0, 128

000000008020413c <.LBB514_7>:
; .LBB514_7():
; /rustc/ecd44958e0a21110d09862ee080d95a4ca6c52f8/library/core/src/fmt/num.rs:110
8020413c: 17 76 00 00  	auipc	a2, 7
80204140: 13 06 56 f0  	addi	a2, a2, -251
80204144: 85 45        	li	a1, 1
80204146: 89 46        	li	a3, 2
80204148: 42 85        	mv	a0, a6
8020414a: 97 f0 ff ff  	auipc	ra, 1048575
8020414e: e7 80 20 f6  	jalr	-158(ra)
; /rustc/ecd44958e0a21110d09862ee080d95a4ca6c52f8/library/core/src/fmt/num.rs:156
80204152: aa 60        	ld	ra, 136(sp)
80204154: 49 61        	addi	sp, sp, 144
80204156: 82 80        	ret
; /rustc/ecd44958e0a21110d09862ee080d95a4ca6c52f8/library/core/src/slice/index.rs:390
80204158: 93 05 00 08  	li	a1, 128
8020415c: 97 f0 ff ff  	auipc	ra, 1048575
80204160: e7 80 a0 6d  	jalr	1754(ra)
80204164: 00 00        	unimp	

0000000080204166 <_ZN4core3fmt3num55_$LT$impl$u20$core..fmt..UpperHex$u20$for$u20$usize$GT$3fmt17h657b27a0793df05eE>:
; _ZN4core3fmt3num55_$LT$impl$u20$core..fmt..UpperHex$u20$for$u20$isize$GT$3fmt17h5a9a6dd8bcc67b13E():
; /rustc/ecd44958e0a21110d09862ee080d95a4ca6c52f8/library/core/src/fmt/num.rs:154
80204166: 75 71        	addi	sp, sp, -144
80204168: 06 e5        	sd	ra, 136(sp)
8020416a: 2e 88        	mv	a6, a1
8020416c: 81 45        	li	a1, 0
; /rustc/ecd44958e0a21110d09862ee080d95a4ca6c52f8/library/core/src/fmt/num.rs:155
8020416e: 18 61        	ld	a4, 0(a0)
80204170: 93 08 81 00  	addi	a7, sp, 8
80204174: a9 42        	li	t0, 10
80204176: 3d 43        	li	t1, 15
80204178: 19 a8        	j	0x8020418e <_ZN4core3fmt3num55_$LT$impl$u20$core..fmt..UpperHex$u20$for$u20$usize$GT$3fmt17h657b27a0793df05eE+0x28>
8020417a: b3 86 b8 00  	add	a3, a7, a1
8020417e: 13 57 45 00  	srli	a4, a0, 4
80204182: 3d 9e        	addw	a2, a2, a5
; /rustc/ecd44958e0a21110d09862ee080d95a4ca6c52f8/library/core/src/mem/maybe_uninit.rs:496
80204184: a3 8f c6 06  	sb	a2, 127(a3)
; /rustc/ecd44958e0a21110d09862ee080d95a4ca6c52f8/library/core/src/fmt/num.rs:83
80204188: fd 15        	addi	a1, a1, -1
8020418a: 63 7c a3 00  	bgeu	t1, a0, 0x802041a2 <_ZN4core3fmt3num55_$LT$impl$u20$core..fmt..UpperHex$u20$for$u20$usize$GT$3fmt17h657b27a0793df05eE+0x3c>
8020418e: 3a 85        	mv	a0, a4
; /rustc/ecd44958e0a21110d09862ee080d95a4ca6c52f8/library/core/src/fmt/num.rs:42
80204190: 93 77 f7 00  	andi	a5, a4, 15
80204194: 13 06 00 03  	li	a2, 48
; /rustc/ecd44958e0a21110d09862ee080d95a4ca6c52f8/library/core/src/fmt/num.rs:148
80204198: e3 e1 57 fe  	bltu	a5, t0, 0x8020417a <_ZN4core3fmt3num55_$LT$impl$u20$core..fmt..UpperHex$u20$for$u20$usize$GT$3fmt17h657b27a0793df05eE+0x14>
8020419c: 13 06 70 03  	li	a2, 55
802041a0: e9 bf        	j	0x8020417a <_ZN4core3fmt3num55_$LT$impl$u20$core..fmt..UpperHex$u20$for$u20$usize$GT$3fmt17h657b27a0793df05eE+0x14>
; /rustc/ecd44958e0a21110d09862ee080d95a4ca6c52f8/library/core/src/slice/index.rs:389
802041a2: 13 85 05 08  	addi	a0, a1, 128
802041a6: 13 06 10 08  	li	a2, 129
802041aa: 63 76 c5 02  	bgeu	a0, a2, 0x802041d6 <.LBB515_7+0x1c>
; /rustc/ecd44958e0a21110d09862ee080d95a4ca6c52f8/library/core/src/ptr/metadata.rs:117
802041ae: b3 07 b0 40  	neg	a5, a1
802041b2: 28 00        	addi	a0, sp, 8
; /rustc/ecd44958e0a21110d09862ee080d95a4ca6c52f8/library/core/src/fmt/num.rs:110
802041b4: 2e 95        	add	a0, a0, a1
802041b6: 13 07 05 08  	addi	a4, a0, 128

00000000802041ba <.LBB515_7>:
; .LBB515_7():
; /rustc/ecd44958e0a21110d09862ee080d95a4ca6c52f8/library/core/src/fmt/num.rs:110
802041ba: 17 76 00 00  	auipc	a2, 7
802041be: 13 06 76 e8  	addi	a2, a2, -377
802041c2: 85 45        	li	a1, 1
802041c4: 89 46        	li	a3, 2
802041c6: 42 85        	mv	a0, a6
802041c8: 97 f0 ff ff  	auipc	ra, 1048575
802041cc: e7 80 40 ee  	jalr	-284(ra)
; /rustc/ecd44958e0a21110d09862ee080d95a4ca6c52f8/library/core/src/fmt/num.rs:156
802041d0: aa 60        	ld	ra, 136(sp)
802041d2: 49 61        	addi	sp, sp, 144
802041d4: 82 80        	ret
; /rustc/ecd44958e0a21110d09862ee080d95a4ca6c52f8/library/core/src/slice/index.rs:390
802041d6: 93 05 00 08  	li	a1, 128
802041da: 97 f0 ff ff  	auipc	ra, 1048575
802041de: e7 80 c0 65  	jalr	1628(ra)
802041e2: 00 00        	unimp	

00000000802041e4 <_ZN4core3fmt3num49_$LT$impl$u20$core..fmt..Debug$u20$for$u20$u8$GT$3fmt17he898795bf0a5a837E>:
; _ZN4core3fmt3num49_$LT$impl$u20$core..fmt..Debug$u20$for$u20$u8$GT$3fmt17he898795bf0a5a837E():
; /rustc/ecd44958e0a21110d09862ee080d95a4ca6c52f8/library/core/src/fmt/num.rs:185
802041e4: 75 71        	addi	sp, sp, -144
802041e6: 06 e5        	sd	ra, 136(sp)
802041e8: 2e 88        	mv	a6, a1
; /rustc/ecd44958e0a21110d09862ee080d95a4ca6c52f8/library/core/src/fmt/mod.rs:1918
802041ea: 83 e5 05 03  	lwu	a1, 48(a1)
802041ee: 13 f6 05 01  	andi	a2, a1, 16
; /rustc/ecd44958e0a21110d09862ee080d95a4ca6c52f8/library/core/src/fmt/num.rs:186
802041f2: 11 ee        	bnez	a2, 0x8020420e <_ZN4core3fmt3num49_$LT$impl$u20$core..fmt..Debug$u20$for$u20$u8$GT$3fmt17he898795bf0a5a837E+0x2a>
; /rustc/ecd44958e0a21110d09862ee080d95a4ca6c52f8/library/core/src/fmt/mod.rs:1922
802041f4: 93 f5 05 02  	andi	a1, a1, 32
; /rustc/ecd44958e0a21110d09862ee080d95a4ca6c52f8/library/core/src/fmt/num.rs:188
802041f8: a1 e9        	bnez	a1, 0x80204248 <_ZN4core3fmt3num49_$LT$impl$u20$core..fmt..Debug$u20$for$u20$u8$GT$3fmt17he898795bf0a5a837E+0x64>
; /rustc/ecd44958e0a21110d09862ee080d95a4ca6c52f8/library/core/src/fmt/num.rs:45
802041fa: 03 45 05 00  	lbu	a0, 0(a0)
; /rustc/ecd44958e0a21110d09862ee080d95a4ca6c52f8/library/core/src/fmt/num.rs:287
802041fe: 85 45        	li	a1, 1
80204200: 42 86        	mv	a2, a6
80204202: aa 60        	ld	ra, 136(sp)
80204204: 49 61        	addi	sp, sp, 144
80204206: 17 03 00 00  	auipc	t1, 0
8020420a: 67 00 43 19  	jr	404(t1)
8020420e: 81 45        	li	a1, 0
; /rustc/ecd44958e0a21110d09862ee080d95a4ca6c52f8/library/core/src/fmt/num.rs:155
80204210: 83 46 05 00  	lbu	a3, 0(a0)
80204214: 93 08 81 00  	addi	a7, sp, 8
80204218: a9 42        	li	t0, 10
8020421a: 3d 43        	li	t1, 15
8020421c: 29 a8        	j	0x80204236 <_ZN4core3fmt3num49_$LT$impl$u20$core..fmt..Debug$u20$for$u20$u8$GT$3fmt17he898795bf0a5a837E+0x52>
8020421e: 33 86 b8 00  	add	a2, a7, a1
80204222: 13 f7 f6 0f  	andi	a4, a3, 255
80204226: 93 56 47 00  	srli	a3, a4, 4
8020422a: 3d 9d        	addw	a0, a0, a5
; /rustc/ecd44958e0a21110d09862ee080d95a4ca6c52f8/library/core/src/mem/maybe_uninit.rs:496
8020422c: a3 0f a6 06  	sb	a0, 127(a2)
; /rustc/ecd44958e0a21110d09862ee080d95a4ca6c52f8/library/core/src/fmt/num.rs:83
80204230: fd 15        	addi	a1, a1, -1
80204232: 63 78 e3 04  	bgeu	t1, a4, 0x80204282 <_ZN4core3fmt3num49_$LT$impl$u20$core..fmt..Debug$u20$for$u20$u8$GT$3fmt17he898795bf0a5a837E+0x9e>
; /rustc/ecd44958e0a21110d09862ee080d95a4ca6c52f8/library/core/src/ops/arith.rs:602
80204236: 93 f7 f6 00  	andi	a5, a3, 15
8020423a: 13 05 00 03  	li	a0, 48
; /rustc/ecd44958e0a21110d09862ee080d95a4ca6c52f8/library/core/src/fmt/num.rs:147
8020423e: e3 e0 57 fe  	bltu	a5, t0, 0x8020421e <_ZN4core3fmt3num49_$LT$impl$u20$core..fmt..Debug$u20$for$u20$u8$GT$3fmt17he898795bf0a5a837E+0x3a>
80204242: 13 05 70 05  	li	a0, 87
80204246: e1 bf        	j	0x8020421e <_ZN4core3fmt3num49_$LT$impl$u20$core..fmt..Debug$u20$for$u20$u8$GT$3fmt17he898795bf0a5a837E+0x3a>
80204248: 81 45        	li	a1, 0
; /rustc/ecd44958e0a21110d09862ee080d95a4ca6c52f8/library/core/src/fmt/num.rs:155
8020424a: 83 46 05 00  	lbu	a3, 0(a0)
8020424e: 93 08 81 00  	addi	a7, sp, 8
80204252: a9 42        	li	t0, 10
80204254: 3d 43        	li	t1, 15
80204256: 29 a8        	j	0x80204270 <_ZN4core3fmt3num49_$LT$impl$u20$core..fmt..Debug$u20$for$u20$u8$GT$3fmt17he898795bf0a5a837E+0x8c>
80204258: 33 86 b8 00  	add	a2, a7, a1
8020425c: 13 f7 f6 0f  	andi	a4, a3, 255
80204260: 93 56 47 00  	srli	a3, a4, 4
80204264: 3d 9d        	addw	a0, a0, a5
; /rustc/ecd44958e0a21110d09862ee080d95a4ca6c52f8/library/core/src/mem/maybe_uninit.rs:496
80204266: a3 0f a6 06  	sb	a0, 127(a2)
; /rustc/ecd44958e0a21110d09862ee080d95a4ca6c52f8/library/core/src/fmt/num.rs:83
8020426a: fd 15        	addi	a1, a1, -1
8020426c: 63 7b e3 00  	bgeu	t1, a4, 0x80204282 <_ZN4core3fmt3num49_$LT$impl$u20$core..fmt..Debug$u20$for$u20$u8$GT$3fmt17he898795bf0a5a837E+0x9e>
; /rustc/ecd44958e0a21110d09862ee080d95a4ca6c52f8/library/core/src/ops/arith.rs:602
80204270: 93 f7 f6 00  	andi	a5, a3, 15
80204274: 13 05 00 03  	li	a0, 48
; /rustc/ecd44958e0a21110d09862ee080d95a4ca6c52f8/library/core/src/fmt/num.rs:148
80204278: e3 e0 57 fe  	bltu	a5, t0, 0x80204258 <_ZN4core3fmt3num49_$LT$impl$u20$core..fmt..Debug$u20$for$u20$u8$GT$3fmt17he898795bf0a5a837E+0x74>
8020427c: 13 05 70 03  	li	a0, 55
80204280: e1 bf        	j	0x80204258 <_ZN4core3fmt3num49_$LT$impl$u20$core..fmt..Debug$u20$for$u20$u8$GT$3fmt17he898795bf0a5a837E+0x74>
80204282: 13 85 05 08  	addi	a0, a1, 128
80204286: 13 06 10 08  	li	a2, 129
8020428a: 63 76 c5 02  	bgeu	a0, a2, 0x802042b6 <.LBB524_14+0x1c>
8020428e: b3 07 b0 40  	neg	a5, a1
80204292: 28 00        	addi	a0, sp, 8
80204294: 2e 95        	add	a0, a0, a1
80204296: 13 07 05 08  	addi	a4, a0, 128

000000008020429a <.LBB524_14>:
; .LBB524_14():
8020429a: 17 76 00 00  	auipc	a2, 7
8020429e: 13 06 76 da  	addi	a2, a2, -601
802042a2: 85 45        	li	a1, 1
802042a4: 89 46        	li	a3, 2
802042a6: 42 85        	mv	a0, a6
802042a8: 97 f0 ff ff  	auipc	ra, 1048575
802042ac: e7 80 40 e0  	jalr	-508(ra)
; /rustc/ecd44958e0a21110d09862ee080d95a4ca6c52f8/library/core/src/fmt/num.rs:193
802042b0: aa 60        	ld	ra, 136(sp)
802042b2: 49 61        	addi	sp, sp, 144
802042b4: 82 80        	ret
802042b6: 93 05 00 08  	li	a1, 128
802042ba: 97 f0 ff ff  	auipc	ra, 1048575
802042be: e7 80 c0 57  	jalr	1404(ra)
802042c2: 00 00        	unimp	

00000000802042c4 <_ZN4core3fmt3num52_$LT$impl$u20$core..fmt..Debug$u20$for$u20$usize$GT$3fmt17hbfb7792ccebeb53eE>:
; _ZN4core3fmt3num52_$LT$impl$u20$core..fmt..Debug$u20$for$u20$usize$GT$3fmt17hbfb7792ccebeb53eE():
; /rustc/ecd44958e0a21110d09862ee080d95a4ca6c52f8/library/core/src/fmt/num.rs:185
802042c4: 75 71        	addi	sp, sp, -144
802042c6: 06 e5        	sd	ra, 136(sp)
802042c8: 2e 88        	mv	a6, a1
; /rustc/ecd44958e0a21110d09862ee080d95a4ca6c52f8/library/core/src/fmt/mod.rs:1918
802042ca: 83 e5 05 03  	lwu	a1, 48(a1)
802042ce: 13 f6 05 01  	andi	a2, a1, 16
; /rustc/ecd44958e0a21110d09862ee080d95a4ca6c52f8/library/core/src/fmt/num.rs:186
802042d2: 09 ee        	bnez	a2, 0x802042ec <_ZN4core3fmt3num52_$LT$impl$u20$core..fmt..Debug$u20$for$u20$usize$GT$3fmt17hbfb7792ccebeb53eE+0x28>
; /rustc/ecd44958e0a21110d09862ee080d95a4ca6c52f8/library/core/src/fmt/mod.rs:1922
802042d4: 93 f5 05 02  	andi	a1, a1, 32
; /rustc/ecd44958e0a21110d09862ee080d95a4ca6c52f8/library/core/src/fmt/num.rs:188
802042d8: a9 e5        	bnez	a1, 0x80204322 <_ZN4core3fmt3num52_$LT$impl$u20$core..fmt..Debug$u20$for$u20$usize$GT$3fmt17hbfb7792ccebeb53eE+0x5e>
; /rustc/ecd44958e0a21110d09862ee080d95a4ca6c52f8/library/core/src/fmt/num.rs:45
802042da: 08 61        	ld	a0, 0(a0)
; /rustc/ecd44958e0a21110d09862ee080d95a4ca6c52f8/library/core/src/fmt/num.rs:287
802042dc: 85 45        	li	a1, 1
802042de: 42 86        	mv	a2, a6
802042e0: aa 60        	ld	ra, 136(sp)
802042e2: 49 61        	addi	sp, sp, 144
802042e4: 17 03 00 00  	auipc	t1, 0
802042e8: 67 00 63 0b  	jr	182(t1)
802042ec: 81 45        	li	a1, 0
; /rustc/ecd44958e0a21110d09862ee080d95a4ca6c52f8/library/core/src/fmt/num.rs:155
802042ee: 18 61        	ld	a4, 0(a0)
802042f0: 93 08 81 00  	addi	a7, sp, 8
802042f4: a9 42        	li	t0, 10
802042f6: 3d 43        	li	t1, 15
802042f8: 19 a8        	j	0x8020430e <_ZN4core3fmt3num52_$LT$impl$u20$core..fmt..Debug$u20$for$u20$usize$GT$3fmt17hbfb7792ccebeb53eE+0x4a>
802042fa: b3 86 b8 00  	add	a3, a7, a1
802042fe: 13 57 45 00  	srli	a4, a0, 4
80204302: 3d 9e        	addw	a2, a2, a5
; /rustc/ecd44958e0a21110d09862ee080d95a4ca6c52f8/library/core/src/mem/maybe_uninit.rs:496
80204304: a3 8f c6 06  	sb	a2, 127(a3)
; /rustc/ecd44958e0a21110d09862ee080d95a4ca6c52f8/library/core/src/fmt/num.rs:83
80204308: fd 15        	addi	a1, a1, -1
8020430a: 63 77 a3 04  	bgeu	t1, a0, 0x80204358 <_ZN4core3fmt3num52_$LT$impl$u20$core..fmt..Debug$u20$for$u20$usize$GT$3fmt17hbfb7792ccebeb53eE+0x94>
8020430e: 3a 85        	mv	a0, a4
; /rustc/ecd44958e0a21110d09862ee080d95a4ca6c52f8/library/core/src/fmt/num.rs:42
80204310: 93 77 f7 00  	andi	a5, a4, 15
80204314: 13 06 00 03  	li	a2, 48
; /rustc/ecd44958e0a21110d09862ee080d95a4ca6c52f8/library/core/src/fmt/num.rs:147
80204318: e3 e1 57 fe  	bltu	a5, t0, 0x802042fa <_ZN4core3fmt3num52_$LT$impl$u20$core..fmt..Debug$u20$for$u20$usize$GT$3fmt17hbfb7792ccebeb53eE+0x36>
8020431c: 13 06 70 05  	li	a2, 87
80204320: e9 bf        	j	0x802042fa <_ZN4core3fmt3num52_$LT$impl$u20$core..fmt..Debug$u20$for$u20$usize$GT$3fmt17hbfb7792ccebeb53eE+0x36>
80204322: 81 45        	li	a1, 0
; /rustc/ecd44958e0a21110d09862ee080d95a4ca6c52f8/library/core/src/fmt/num.rs:155
80204324: 18 61        	ld	a4, 0(a0)
80204326: 93 08 81 00  	addi	a7, sp, 8
8020432a: a9 42        	li	t0, 10
8020432c: 3d 43        	li	t1, 15
8020432e: 19 a8        	j	0x80204344 <_ZN4core3fmt3num52_$LT$impl$u20$core..fmt..Debug$u20$for$u20$usize$GT$3fmt17hbfb7792ccebeb53eE+0x80>
80204330: b3 86 b8 00  	add	a3, a7, a1
80204334: 13 57 45 00  	srli	a4, a0, 4
80204338: 3d 9e        	addw	a2, a2, a5
; /rustc/ecd44958e0a21110d09862ee080d95a4ca6c52f8/library/core/src/mem/maybe_uninit.rs:496
8020433a: a3 8f c6 06  	sb	a2, 127(a3)
; /rustc/ecd44958e0a21110d09862ee080d95a4ca6c52f8/library/core/src/fmt/num.rs:83
8020433e: fd 15        	addi	a1, a1, -1
80204340: 63 7c a3 00  	bgeu	t1, a0, 0x80204358 <_ZN4core3fmt3num52_$LT$impl$u20$core..fmt..Debug$u20$for$u20$usize$GT$3fmt17hbfb7792ccebeb53eE+0x94>
80204344: 3a 85        	mv	a0, a4
; /rustc/ecd44958e0a21110d09862ee080d95a4ca6c52f8/library/core/src/fmt/num.rs:42
80204346: 93 77 f7 00  	andi	a5, a4, 15
8020434a: 13 06 00 03  	li	a2, 48
; /rustc/ecd44958e0a21110d09862ee080d95a4ca6c52f8/library/core/src/fmt/num.rs:148
8020434e: e3 e1 57 fe  	bltu	a5, t0, 0x80204330 <_ZN4core3fmt3num52_$LT$impl$u20$core..fmt..Debug$u20$for$u20$usize$GT$3fmt17hbfb7792ccebeb53eE+0x6c>
80204352: 13 06 70 03  	li	a2, 55
80204356: e9 bf        	j	0x80204330 <_ZN4core3fmt3num52_$LT$impl$u20$core..fmt..Debug$u20$for$u20$usize$GT$3fmt17hbfb7792ccebeb53eE+0x6c>
80204358: 13 85 05 08  	addi	a0, a1, 128
8020435c: 13 06 10 08  	li	a2, 129
80204360: 63 76 c5 02  	bgeu	a0, a2, 0x8020438c <.LBB528_14+0x1c>
80204364: b3 07 b0 40  	neg	a5, a1
80204368: 28 00        	addi	a0, sp, 8
8020436a: 2e 95        	add	a0, a0, a1
8020436c: 13 07 05 08  	addi	a4, a0, 128

0000000080204370 <.LBB528_14>:
; .LBB528_14():
80204370: 17 76 00 00  	auipc	a2, 7
80204374: 13 06 16 cd  	addi	a2, a2, -815
80204378: 85 45        	li	a1, 1
8020437a: 89 46        	li	a3, 2
8020437c: 42 85        	mv	a0, a6
8020437e: 97 f0 ff ff  	auipc	ra, 1048575
80204382: e7 80 e0 d2  	jalr	-722(ra)
; /rustc/ecd44958e0a21110d09862ee080d95a4ca6c52f8/library/core/src/fmt/num.rs:193
80204386: aa 60        	ld	ra, 136(sp)
80204388: 49 61        	addi	sp, sp, 144
8020438a: 82 80        	ret
8020438c: 93 05 00 08  	li	a1, 128
80204390: 97 f0 ff ff  	auipc	ra, 1048575
80204394: e7 80 60 4a  	jalr	1190(ra)
80204398: 00 00        	unimp	

000000008020439a <_ZN4core3fmt3num3imp7fmt_u6417h9bc9082edc66f511E>:
; _ZN4core3fmt3num3imp7fmt_u6417h9bc9082edc66f511E():
; /rustc/ecd44958e0a21110d09862ee080d95a4ca6c52f8/library/core/src/fmt/num.rs:211
8020439a: 39 71        	addi	sp, sp, -64
8020439c: 06 fc        	sd	ra, 56(sp)
8020439e: 22 f8        	sd	s0, 48(sp)
802043a0: 26 f4        	sd	s1, 40(sp)
802043a2: 32 88        	mv	a6, a2
; /rustc/ecd44958e0a21110d09862ee080d95a4ca6c52f8/library/core/src/fmt/num.rs:230
802043a4: 93 56 45 00  	srli	a3, a0, 4
802043a8: 13 07 70 02  	li	a4, 39
802043ac: 93 07 10 27  	li	a5, 625

00000000802043b0 <.LBB529_10>:
; .LBB529_10():
802043b0: 17 7e 00 00  	auipc	t3, 7
802043b4: 13 0e 3e c9  	addi	t3, t3, -877
; /rustc/ecd44958e0a21110d09862ee080d95a4ca6c52f8/library/core/src/fmt/num.rs:230
802043b8: 63 f3 f6 02  	bgeu	a3, a5, 0x802043de <.LBB529_10+0x2e>
802043bc: 93 06 30 06  	li	a3, 99
; /rustc/ecd44958e0a21110d09862ee080d95a4ca6c52f8/library/core/src/fmt/num.rs:249
802043c0: 63 e9 a6 0a  	bltu	a3, a0, 0x80204472 <.LBB529_11+0x92>
802043c4: 29 46        	li	a2, 10
; /rustc/ecd44958e0a21110d09862ee080d95a4ca6c52f8/library/core/src/fmt/num.rs:257
802043c6: 63 77 c5 0e  	bgeu	a0, a2, 0x802044b4 <.LBB529_11+0xd4>
; /rustc/ecd44958e0a21110d09862ee080d95a4ca6c52f8/library/core/src/fmt/num.rs:258
802043ca: 93 06 f7 ff  	addi	a3, a4, -1
802043ce: 13 06 11 00  	addi	a2, sp, 1
; /rustc/ecd44958e0a21110d09862ee080d95a4ca6c52f8/library/core/src/ptr/mut_ptr.rs:467
802043d2: 36 96        	add	a2, a2, a3
; /rustc/ecd44958e0a21110d09862ee080d95a4ca6c52f8/library/core/src/fmt/num.rs:259
802043d4: 1b 05 05 03  	addiw	a0, a0, 48
802043d8: 23 00 a6 00  	sb	a0, 0(a2)
802043dc: dd a8        	j	0x802044d2 <.LBB529_11+0xf2>
802043de: 01 47        	li	a4, 0

00000000802043e0 <.LBB529_11>:
; .LBB529_11():
802043e0: 97 96 00 00  	auipc	a3, 9
802043e4: 93 86 06 39  	addi	a3, a3, 912
802043e8: 83 b8 06 00  	ld	a7, 0(a3)
802043ec: 89 66        	lui	a3, 2
802043ee: 9b 83 06 71  	addiw	t2, a3, 1808
802043f2: 85 66        	lui	a3, 1
802043f4: 9b 8e b6 47  	addiw	t4, a3, 1147
802043f8: 93 02 40 06  	li	t0, 100
802043fc: 13 03 11 00  	addi	t1, sp, 1
80204400: b7 e6 f5 05  	lui	a3, 24414
80204404: 1b 8f f6 0f  	addiw	t5, a3, 255
80204408: 2a 86        	mv	a2, a0
; /rustc/ecd44958e0a21110d09862ee080d95a4ca6c52f8/library/core/src/fmt/num.rs:232
8020440a: 33 35 15 03  	mulhu	a0, a0, a7
8020440e: 2d 81        	srli	a0, a0, 11
80204410: bb 07 75 02  	mulw	a5, a0, t2
80204414: bb 07 f6 40  	subw	a5, a2, a5
; /rustc/ecd44958e0a21110d09862ee080d95a4ca6c52f8/library/core/src/fmt/num.rs:234
80204418: 93 96 07 03  	slli	a3, a5, 48
8020441c: c9 92        	srli	a3, a3, 50
8020441e: b3 86 d6 03  	mul	a3, a3, t4
80204422: c5 82        	srli	a3, a3, 17
80204424: 93 9f 16 00  	slli	t6, a3, 1
80204428: bb 86 56 02  	mulw	a3, a3, t0
8020442c: bb 86 d7 40  	subw	a3, a5, a3
; /rustc/ecd44958e0a21110d09862ee080d95a4ca6c52f8/library/core/src/fmt/num.rs:235
80204430: c6 16        	slli	a3, a3, 49
80204432: 13 d4 06 03  	srli	s0, a3, 48
; /rustc/ecd44958e0a21110d09862ee080d95a4ca6c52f8/library/core/src/ptr/const_ptr.rs:455
80204436: b3 87 cf 01  	add	a5, t6, t3
; /rustc/ecd44958e0a21110d09862ee080d95a4ca6c52f8/library/core/src/intrinsics.rs:2130
8020443a: b3 06 e3 00  	add	a3, t1, a4
8020443e: 83 cf 07 00  	lbu	t6, 0(a5)
80204442: 83 87 17 00  	lb	a5, 1(a5)
; /rustc/ecd44958e0a21110d09862ee080d95a4ca6c52f8/library/core/src/ptr/const_ptr.rs:455
80204446: 72 94        	add	s0, s0, t3
; /rustc/ecd44958e0a21110d09862ee080d95a4ca6c52f8/library/core/src/intrinsics.rs:2130
80204448: 83 04 14 00  	lb	s1, 1(s0)
8020444c: 03 44 04 00  	lbu	s0, 0(s0)
80204450: 23 82 f6 02  	sb	a5, 36(a3)
80204454: a3 81 f6 03  	sb	t6, 35(a3)
80204458: 23 83 96 02  	sb	s1, 38(a3)
8020445c: a3 82 86 02  	sb	s0, 37(a3)
; /rustc/ecd44958e0a21110d09862ee080d95a4ca6c52f8/library/core/src/fmt/num.rs:230
80204460: 71 17        	addi	a4, a4, -4
80204462: e3 63 cf fa  	bltu	t5, a2, 0x80204408 <.LBB529_11+0x28>
; /rustc/ecd44958e0a21110d09862ee080d95a4ca6c52f8/library/core/src/fmt/num.rs:249
80204466: 13 07 77 02  	addi	a4, a4, 39
8020446a: 93 06 30 06  	li	a3, 99
8020446e: e3 fb a6 f4  	bgeu	a3, a0, 0x802043c4 <.LBB529_10+0x14>
; /rustc/ecd44958e0a21110d09862ee080d95a4ca6c52f8/library/core/src/fmt/num.rs:251
80204472: 13 16 05 03  	slli	a2, a0, 48
80204476: 49 92        	srli	a2, a2, 50
80204478: 85 66        	lui	a3, 1
8020447a: 9b 86 b6 47  	addiw	a3, a3, 1147
8020447e: 33 06 d6 02  	mul	a2, a2, a3
80204482: 45 82        	srli	a2, a2, 17
80204484: 93 06 40 06  	li	a3, 100
80204488: bb 06 d6 02  	mulw	a3, a2, a3
8020448c: 15 9d        	subw	a0, a0, a3
; /rustc/ecd44958e0a21110d09862ee080d95a4ca6c52f8/library/core/src/fmt/num.rs:250
8020448e: 46 15        	slli	a0, a0, 49
80204490: 41 91        	srli	a0, a0, 48
; /rustc/ecd44958e0a21110d09862ee080d95a4ca6c52f8/library/core/src/fmt/num.rs:252
80204492: 79 17        	addi	a4, a4, -2
; /rustc/ecd44958e0a21110d09862ee080d95a4ca6c52f8/library/core/src/ptr/const_ptr.rs:455
80204494: 72 95        	add	a0, a0, t3
; /rustc/ecd44958e0a21110d09862ee080d95a4ca6c52f8/library/core/src/intrinsics.rs:2130
80204496: 83 06 15 00  	lb	a3, 1(a0)
8020449a: 03 45 05 00  	lbu	a0, 0(a0)
8020449e: 93 07 11 00  	addi	a5, sp, 1
; /rustc/ecd44958e0a21110d09862ee080d95a4ca6c52f8/library/core/src/ptr/mut_ptr.rs:467
802044a2: ba 97        	add	a5, a5, a4
; /rustc/ecd44958e0a21110d09862ee080d95a4ca6c52f8/library/core/src/intrinsics.rs:2130
802044a4: a3 80 d7 00  	sb	a3, 1(a5)
802044a8: 23 80 a7 00  	sb	a0, 0(a5)
802044ac: 32 85        	mv	a0, a2
802044ae: 29 46        	li	a2, 10
; /rustc/ecd44958e0a21110d09862ee080d95a4ca6c52f8/library/core/src/fmt/num.rs:257
802044b0: e3 6d c5 f0  	bltu	a0, a2, 0x802043ca <.LBB529_10+0x1a>
; /rustc/ecd44958e0a21110d09862ee080d95a4ca6c52f8/library/core/src/fmt/num.rs:261
802044b4: 06 05        	slli	a0, a0, 1
; /rustc/ecd44958e0a21110d09862ee080d95a4ca6c52f8/library/core/src/fmt/num.rs:262
802044b6: 93 06 e7 ff  	addi	a3, a4, -2
; /rustc/ecd44958e0a21110d09862ee080d95a4ca6c52f8/library/core/src/ptr/const_ptr.rs:455
802044ba: 72 95        	add	a0, a0, t3
; /rustc/ecd44958e0a21110d09862ee080d95a4ca6c52f8/library/core/src/intrinsics.rs:2130
802044bc: 03 06 15 00  	lb	a2, 1(a0)
802044c0: 03 45 05 00  	lbu	a0, 0(a0)
802044c4: 13 07 11 00  	addi	a4, sp, 1
; /rustc/ecd44958e0a21110d09862ee080d95a4ca6c52f8/library/core/src/ptr/mut_ptr.rs:467
802044c8: 36 97        	add	a4, a4, a3
; /rustc/ecd44958e0a21110d09862ee080d95a4ca6c52f8/library/core/src/intrinsics.rs:2130
802044ca: a3 00 c7 00  	sb	a2, 1(a4)
802044ce: 23 00 a7 00  	sb	a0, 0(a4)
802044d2: 13 05 11 00  	addi	a0, sp, 1
; /rustc/ecd44958e0a21110d09862ee080d95a4ca6c52f8/library/core/src/ptr/mut_ptr.rs:467
802044d6: 33 07 d5 00  	add	a4, a0, a3
802044da: 13 05 70 02  	li	a0, 39
; /rustc/ecd44958e0a21110d09862ee080d95a4ca6c52f8/library/core/src/fmt/num.rs:271
802044de: b3 07 d5 40  	sub	a5, a0, a3

00000000802044e2 <.LBB529_12>:
; .LBB529_12():
; /rustc/ecd44958e0a21110d09862ee080d95a4ca6c52f8/library/core/src/fmt/num.rs:273
802044e2: 17 76 00 00  	auipc	a2, 7
802044e6: 13 06 66 9e  	addi	a2, a2, -1562
802044ea: 42 85        	mv	a0, a6
802044ec: 81 46        	li	a3, 0
802044ee: 97 f0 ff ff  	auipc	ra, 1048575
802044f2: e7 80 e0 bb  	jalr	-1090(ra)
; /rustc/ecd44958e0a21110d09862ee080d95a4ca6c52f8/library/core/src/fmt/num.rs:274
802044f6: e2 70        	ld	ra, 56(sp)
802044f8: 42 74        	ld	s0, 48(sp)
802044fa: a2 74        	ld	s1, 40(sp)
802044fc: 21 61        	addi	sp, sp, 64
802044fe: 82 80        	ret

0000000080204500 <_ZN4core3fmt3num3imp52_$LT$impl$u20$core..fmt..Display$u20$for$u20$i32$GT$3fmt17h5f07b0e0e9252096E>:
; _ZN4core3fmt3num3imp52_$LT$impl$u20$core..fmt..Display$u20$for$u20$i32$GT$3fmt17h5f07b0e0e9252096E():
; /rustc/ecd44958e0a21110d09862ee080d95a4ca6c52f8/library/core/src/fmt/num.rs:280
80204500: 03 65 05 00  	lwu	a0, 0(a0)
80204504: 2e 86        	mv	a2, a1
80204506: 9b 06 05 00  	sext.w	a3, a0
8020450a: fd 55        	li	a1, -1
8020450c: b3 a5 d5 00  	slt	a1, a1, a3
; /rustc/ecd44958e0a21110d09862ee080d95a4ca6c52f8/library/core/src/fmt/num.rs:281
80204510: 63 d6 06 00  	bgez	a3, 0x8020451c <_ZN4core3fmt3num3imp52_$LT$impl$u20$core..fmt..Display$u20$for$u20$i32$GT$3fmt17h5f07b0e0e9252096E+0x1c>
80204514: 13 45 f5 ff  	not	a0, a0
80204518: 01 25        	sext.w	a0, a0
8020451a: 05 05        	addi	a0, a0, 1
; /rustc/ecd44958e0a21110d09862ee080d95a4ca6c52f8/library/core/src/fmt/num.rs:287
8020451c: 17 03 00 00  	auipc	t1, 0
80204520: 67 00 e3 e7  	jr	-386(t1)

0000000080204524 <_ZN4core3fmt3num3imp52_$LT$impl$u20$core..fmt..Display$u20$for$u20$u32$GT$3fmt17h69589eb5f681081bE>:
; _ZN4core3fmt3num3imp52_$LT$impl$u20$core..fmt..Display$u20$for$u20$u32$GT$3fmt17h69589eb5f681081bE():
; /rustc/ecd44958e0a21110d09862ee080d95a4ca6c52f8/library/core/src/fmt/num.rs:45
80204524: 03 65 05 00  	lwu	a0, 0(a0)
80204528: 2e 86        	mv	a2, a1
; /rustc/ecd44958e0a21110d09862ee080d95a4ca6c52f8/library/core/src/fmt/num.rs:287
8020452a: 85 45        	li	a1, 1
8020452c: 17 03 00 00  	auipc	t1, 0
80204530: 67 00 e3 e6  	jr	-402(t1)

0000000080204534 <_ZN4core3fmt3num3imp54_$LT$impl$u20$core..fmt..Display$u20$for$u20$usize$GT$3fmt17hc0492258b5ebaf44E>:
; _ZN4core3fmt3num3imp52_$LT$impl$u20$core..fmt..Display$u20$for$u20$u64$GT$3fmt17h4fabbd9d56a1a985E():
; /rustc/ecd44958e0a21110d09862ee080d95a4ca6c52f8/library/core/src/fmt/num.rs:45
80204534: 08 61        	ld	a0, 0(a0)
80204536: 2e 86        	mv	a2, a1
; /rustc/ecd44958e0a21110d09862ee080d95a4ca6c52f8/library/core/src/fmt/num.rs:287
80204538: 85 45        	li	a1, 1
8020453a: 17 03 00 00  	auipc	t1, 0
8020453e: 67 00 03 e6  	jr	-416(t1)

0000000080204542 <_ZN53_$LT$core..fmt..Error$u20$as$u20$core..fmt..Debug$GT$3fmt17h9e71388b66c9fcefE>:
; _ZN53_$LT$core..fmt..Error$u20$as$u20$core..fmt..Debug$GT$3fmt17h9e71388b66c9fcefE():
; /rustc/ecd44958e0a21110d09862ee080d95a4ca6c52f8/library/core/src/fmt/mod.rs:1627
80204542: 90 75        	ld	a2, 40(a1)
80204544: 88 71        	ld	a0, 32(a1)
80204546: 1c 6e        	ld	a5, 24(a2)

0000000080204548 <.LBB561_1>:
; .LBB561_1():
; /rustc/ecd44958e0a21110d09862ee080d95a4ca6c52f8/library/core/src/fmt/mod.rs:1627
80204548: 97 75 00 00  	auipc	a1, 7
8020454c: 93 85 85 62  	addi	a1, a1, 1576
80204550: 15 46        	li	a2, 5
80204552: 82 87        	jr	a5

0000000080204554 <_ZN42_$LT$$RF$T$u20$as$u20$core..fmt..Debug$GT$3fmt17h45c7385902f811f1E>:
; _ZN42_$LT$$RF$T$u20$as$u20$core..fmt..Debug$GT$3fmt17h45c7385902f811f1E():
; /rustc/ecd44958e0a21110d09862ee080d95a4ca6c52f8/library/core/src/fmt/mod.rs:2134
80204554: 08 61        	ld	a0, 0(a0)
80204556: 17 03 00 00  	auipc	t1, 0
8020455a: 67 00 e3 c8  	jr	-882(t1)

000000008020455e <_ZN42_$LT$$RF$T$u20$as$u20$core..fmt..Debug$GT$3fmt17h6a9f9509972753afE>:
; _ZN42_$LT$$RF$T$u20$as$u20$core..fmt..Debug$GT$3fmt17h6a9f9509972753afE():
; /rustc/ecd44958e0a21110d09862ee080d95a4ca6c52f8/library/core/src/fmt/mod.rs:2134
8020455e: 39 71        	addi	sp, sp, -64
80204560: 06 fc        	sd	ra, 56(sp)
80204562: 22 f8        	sd	s0, 48(sp)
80204564: 26 f4        	sd	s1, 40(sp)
80204566: 10 61        	ld	a2, 0(a0)
; /rustc/ecd44958e0a21110d09862ee080d95a4ca6c52f8/library/core/src/option.rs:515
80204568: 03 45 06 00  	lbu	a0, 0(a2)
8020456c: 2e 84        	mv	s0, a1
8020456e: 51 cd        	beqz	a0, 0x8020460a <.LBB593_13+0x1e>
; /rustc/ecd44958e0a21110d09862ee080d95a4ca6c52f8/library/core/src/fmt/mod.rs:1627
80204570: 0c 74        	ld	a1, 40(s0)
80204572: 08 70        	ld	a0, 32(s0)
80204574: 94 6d        	ld	a3, 24(a1)
; /rustc/ecd44958e0a21110d09862ee080d95a4ca6c52f8/library/core/src/option.rs:526
80204576: 93 04 16 00  	addi	s1, a2, 1

000000008020457a <.LBB593_10>:
; .LBB593_10():
; /rustc/ecd44958e0a21110d09862ee080d95a4ca6c52f8/library/core/src/fmt/mod.rs:1627
8020457a: 97 65 00 00  	auipc	a1, 6
8020457e: 93 85 25 cf  	addi	a1, a1, -782
80204582: 11 46        	li	a2, 4
80204584: 82 96        	jalr	a3
; /rustc/ecd44958e0a21110d09862ee080d95a4ca6c52f8/library/core/src/fmt/builders.rs:290
80204586: 22 e4        	sd	s0, 8(sp)
80204588: 23 0c a1 00  	sb	a0, 24(sp)
8020458c: 02 e8        	sd	zero, 16(sp)
8020458e: a3 0c 01 00  	sb	zero, 25(sp)
; /rustc/ecd44958e0a21110d09862ee080d95a4ca6c52f8/library/core/src/option.rs:526
80204592: 26 f0        	sd	s1, 32(sp)

0000000080204594 <.LBB593_11>:
; .LBB593_11():
; /rustc/ecd44958e0a21110d09862ee080d95a4ca6c52f8/library/core/src/option.rs:515
80204594: 17 76 00 00  	auipc	a2, 7
80204598: 13 06 c6 a8  	addi	a2, a2, -1396
8020459c: 28 00        	addi	a0, sp, 8
8020459e: 0c 10        	addi	a1, sp, 32
802045a0: 97 e0 ff ff  	auipc	ra, 1048574
802045a4: e7 80 00 47  	jalr	1136(ra)
; /rustc/ecd44958e0a21110d09862ee080d95a4ca6c52f8/library/core/src/fmt/builders.rs:366
802045a8: 42 65        	ld	a0, 16(sp)
802045aa: 83 45 81 01  	lbu	a1, 24(sp)
; /rustc/ecd44958e0a21110d09862ee080d95a4ca6c52f8/library/core/src/fmt/builders.rs:366
802045ae: 39 c5        	beqz	a0, 0x802045fc <.LBB593_13+0x10>
802045b0: 05 44        	li	s0, 1
; /rustc/ecd44958e0a21110d09862ee080d95a4ca6c52f8/library/core/src/result.rs:1331
802045b2: a1 e5        	bnez	a1, 0x802045fa <.LBB593_13+0xe>
; /rustc/ecd44958e0a21110d09862ee080d95a4ca6c52f8/library/core/src/fmt/builders.rs:368
802045b4: 83 45 91 01  	lbu	a1, 25(sp)
802045b8: 7d 15        	addi	a0, a0, -1
802045ba: 13 35 15 00  	seqz	a0, a0
802045be: a2 64        	ld	s1, 8(sp)
; /rustc/ecd44958e0a21110d09862ee080d95a4ca6c52f8/library/core/src/fmt/builders.rs:368
802045c0: b3 35 b0 00  	snez	a1, a1
802045c4: 6d 8d        	and	a0, a0, a1
802045c6: 05 c1        	beqz	a0, 0x802045e6 <.LBB593_12+0x10>
; /rustc/ecd44958e0a21110d09862ee080d95a4ca6c52f8/library/core/src/fmt/mod.rs:1886
802045c8: 03 c5 04 03  	lbu	a0, 48(s1)
802045cc: 11 89        	andi	a0, a0, 4
; /rustc/ecd44958e0a21110d09862ee080d95a4ca6c52f8/library/core/src/fmt/builders.rs:368
802045ce: 01 ed        	bnez	a0, 0x802045e6 <.LBB593_12+0x10>
; /rustc/ecd44958e0a21110d09862ee080d95a4ca6c52f8/library/core/src/fmt/mod.rs:1627
802045d0: 8c 74        	ld	a1, 40(s1)
802045d2: 88 70        	ld	a0, 32(s1)
802045d4: 94 6d        	ld	a3, 24(a1)

00000000802045d6 <.LBB593_12>:
; .LBB593_12():
; /rustc/ecd44958e0a21110d09862ee080d95a4ca6c52f8/library/core/src/fmt/mod.rs:1627
802045d6: 97 75 00 00  	auipc	a1, 7
802045da: 93 85 25 a4  	addi	a1, a1, -1470
802045de: 05 46        	li	a2, 1
802045e0: 05 44        	li	s0, 1
802045e2: 82 96        	jalr	a3
; /rustc/ecd44958e0a21110d09862ee080d95a4ca6c52f8/library/core/src/fmt/builders.rs:369
802045e4: 19 e9        	bnez	a0, 0x802045fa <.LBB593_13+0xe>
; /rustc/ecd44958e0a21110d09862ee080d95a4ca6c52f8/library/core/src/fmt/mod.rs:1627
802045e6: 8c 74        	ld	a1, 40(s1)
802045e8: 88 70        	ld	a0, 32(s1)
802045ea: 94 6d        	ld	a3, 24(a1)

00000000802045ec <.LBB593_13>:
; .LBB593_13():
; /rustc/ecd44958e0a21110d09862ee080d95a4ca6c52f8/library/core/src/fmt/mod.rs:1627
802045ec: 97 75 00 00  	auipc	a1, 7
802045f0: 93 85 c5 8d  	addi	a1, a1, -1828
802045f4: 05 46        	li	a2, 1
802045f6: 82 96        	jalr	a3
802045f8: 2a 84        	mv	s0, a0
802045fa: a2 85        	mv	a1, s0
; /rustc/ecd44958e0a21110d09862ee080d95a4ca6c52f8/library/core/src/fmt/builders.rs:374
802045fc: 33 35 b0 00  	snez	a0, a1
; /rustc/ecd44958e0a21110d09862ee080d95a4ca6c52f8/library/core/src/fmt/mod.rs:2134
80204600: e2 70        	ld	ra, 56(sp)
80204602: 42 74        	ld	s0, 48(sp)
80204604: a2 74        	ld	s1, 40(sp)
80204606: 21 61        	addi	sp, sp, 64
80204608: 82 80        	ret
; /rustc/ecd44958e0a21110d09862ee080d95a4ca6c52f8/library/core/src/fmt/mod.rs:1627
8020460a: 0c 74        	ld	a1, 40(s0)
8020460c: 08 70        	ld	a0, 32(s0)
8020460e: 9c 6d        	ld	a5, 24(a1)

0000000080204610 <.LBB593_14>:
; .LBB593_14():
; /rustc/ecd44958e0a21110d09862ee080d95a4ca6c52f8/library/core/src/fmt/mod.rs:1627
80204610: 97 65 00 00  	auipc	a1, 6
80204614: 93 85 85 c6  	addi	a1, a1, -920
80204618: 11 46        	li	a2, 4
8020461a: e2 70        	ld	ra, 56(sp)
8020461c: 42 74        	ld	s0, 48(sp)
8020461e: a2 74        	ld	s1, 40(sp)
80204620: 21 61        	addi	sp, sp, 64
80204622: 82 87        	jr	a5

0000000080204624 <_ZN42_$LT$$RF$T$u20$as$u20$core..fmt..Debug$GT$3fmt17hb84eab1e1b3649faE>:
; _ZN42_$LT$$RF$T$u20$as$u20$core..fmt..Debug$GT$3fmt17hb84eab1e1b3649faE():
; /rustc/ecd44958e0a21110d09862ee080d95a4ca6c52f8/library/core/src/fmt/mod.rs:2134
80204624: 08 61        	ld	a0, 0(a0)
80204626: 17 03 00 00  	auipc	t1, 0
8020462a: 67 00 e3 c9  	jr	-866(t1)

000000008020462e <_ZN42_$LT$$RF$T$u20$as$u20$core..fmt..Debug$GT$3fmt17he372a1cc42630a12E>:
; _ZN42_$LT$$RF$T$u20$as$u20$core..fmt..Debug$GT$3fmt17he372a1cc42630a12E():
; /rustc/ecd44958e0a21110d09862ee080d95a4ca6c52f8/library/core/src/fmt/mod.rs:2134
8020462e: 10 65        	ld	a2, 8(a0)
80204630: 08 61        	ld	a0, 0(a0)
80204632: 1c 6e        	ld	a5, 24(a2)
80204634: 82 87        	jr	a5

0000000080204636 <_ZN44_$LT$$RF$T$u20$as$u20$core..fmt..Display$GT$3fmt17hbfd81f99efc3c370E>:
; _ZN44_$LT$$RF$T$u20$as$u20$core..fmt..Display$GT$3fmt17hbfd81f99efc3c370E():
; /rustc/ecd44958e0a21110d09862ee080d95a4ca6c52f8/library/core/src/fmt/mod.rs:2134
80204636: 14 61        	ld	a3, 0(a0)
80204638: 10 65        	ld	a2, 8(a0)
8020463a: 2e 85        	mv	a0, a1
; /rustc/ecd44958e0a21110d09862ee080d95a4ca6c52f8/library/core/src/fmt/mod.rs:2203
8020463c: b6 85        	mv	a1, a3
8020463e: 17 f3 ff ff  	auipc	t1, 1048575
80204642: 67 00 a3 d3  	jr	-710(t1)

0000000080204646 <_ZN64_$LT$core..str..error..Utf8Error$u20$as$u20$core..fmt..Debug$GT$3fmt17h953d7985185fd032E>:
; _ZN64_$LT$core..str..error..Utf8Error$u20$as$u20$core..fmt..Debug$GT$3fmt17h953d7985185fd032E():
; /rustc/ecd44958e0a21110d09862ee080d95a4ca6c52f8/library/core/src/str/error.rs:44
80204646: 39 71        	addi	sp, sp, -64
80204648: 06 fc        	sd	ra, 56(sp)
8020464a: 22 f8        	sd	s0, 48(sp)
8020464c: 26 f4        	sd	s1, 40(sp)
8020464e: 4a f0        	sd	s2, 32(sp)
80204650: 2e 84        	mv	s0, a1
; /rustc/ecd44958e0a21110d09862ee080d95a4ca6c52f8/library/core/src/fmt/mod.rs:1627
80204652: 8c 75        	ld	a1, 40(a1)
80204654: 14 70        	ld	a3, 32(s0)
80204656: 98 6d        	ld	a4, 24(a1)
80204658: aa 84        	mv	s1, a0
; /rustc/ecd44958e0a21110d09862ee080d95a4ca6c52f8/library/core/src/str/error.rs:48
8020465a: 13 09 85 00  	addi	s2, a0, 8

000000008020465e <.LBB655_8>:
; .LBB655_8():
; /rustc/ecd44958e0a21110d09862ee080d95a4ca6c52f8/library/core/src/fmt/mod.rs:1627
8020465e: 97 75 00 00  	auipc	a1, 7
80204662: 93 85 75 51  	addi	a1, a1, 1303
80204666: 25 46        	li	a2, 9
80204668: 36 85        	mv	a0, a3
8020466a: 02 97        	jalr	a4
; /rustc/ecd44958e0a21110d09862ee080d95a4ca6c52f8/library/core/src/fmt/builders.rs:100
8020466c: 22 e4        	sd	s0, 8(sp)
8020466e: 23 08 a1 00  	sb	a0, 16(sp)
80204672: a3 08 01 00  	sb	zero, 17(sp)
; /rustc/ecd44958e0a21110d09862ee080d95a4ca6c52f8/library/core/src/str/error.rs:47
80204676: 26 ec        	sd	s1, 24(sp)

0000000080204678 <.LBB655_9>:
; .LBB655_9():
; /rustc/ecd44958e0a21110d09862ee080d95a4ca6c52f8/library/core/src/str/error.rs:44
80204678: 97 75 00 00  	auipc	a1, 7
8020467c: 93 85 65 50  	addi	a1, a1, 1286

0000000080204680 <.LBB655_10>:
; .LBB655_10():
; /rustc/ecd44958e0a21110d09862ee080d95a4ca6c52f8/library/core/src/str/error.rs:44
80204680: 17 77 00 00  	auipc	a4, 7
80204684: 13 07 07 91  	addi	a4, a4, -1776
80204688: 28 00        	addi	a0, sp, 8
8020468a: 2d 46        	li	a2, 11
8020468c: 34 08        	addi	a3, sp, 24
8020468e: 97 e0 ff ff  	auipc	ra, 1048574
80204692: e7 80 00 1b  	jalr	432(ra)
; /rustc/ecd44958e0a21110d09862ee080d95a4ca6c52f8/library/core/src/str/error.rs:48
80204696: 4a ec        	sd	s2, 24(sp)

0000000080204698 <.LBB655_11>:
; .LBB655_11():
; /rustc/ecd44958e0a21110d09862ee080d95a4ca6c52f8/library/core/src/str/error.rs:44
80204698: 97 75 00 00  	auipc	a1, 7
8020469c: 93 85 15 4f  	addi	a1, a1, 1265

00000000802046a0 <.LBB655_12>:
; .LBB655_12():
; /rustc/ecd44958e0a21110d09862ee080d95a4ca6c52f8/library/core/src/str/error.rs:44
802046a0: 17 77 00 00  	auipc	a4, 7
802046a4: 13 07 87 4f  	addi	a4, a4, 1272
802046a8: 28 00        	addi	a0, sp, 8
802046aa: 25 46        	li	a2, 9
802046ac: 34 08        	addi	a3, sp, 24
802046ae: 97 e0 ff ff  	auipc	ra, 1048574
802046b2: e7 80 00 19  	jalr	400(ra)
; /rustc/ecd44958e0a21110d09862ee080d95a4ca6c52f8/library/core/src/fmt/builders.rs:234
802046b6: 03 45 11 01  	lbu	a0, 17(sp)
802046ba: 83 45 01 01  	lbu	a1, 16(sp)
; /rustc/ecd44958e0a21110d09862ee080d95a4ca6c52f8/library/core/src/fmt/builders.rs:234
802046be: 1d c9        	beqz	a0, 0x802046f4 <.LBB655_14+0xe>
802046c0: 05 45        	li	a0, 1
; /rustc/ecd44958e0a21110d09862ee080d95a4ca6c52f8/library/core/src/result.rs:1331
802046c2: 85 e9        	bnez	a1, 0x802046f2 <.LBB655_14+0xc>
; /rustc/ecd44958e0a21110d09862ee080d95a4ca6c52f8/library/core/src/fmt/builders.rs:236
802046c4: 22 65        	ld	a0, 8(sp)
; /rustc/ecd44958e0a21110d09862ee080d95a4ca6c52f8/library/core/src/fmt/mod.rs:1886
802046c6: 83 45 05 03  	lbu	a1, 48(a0)
802046ca: 91 89        	andi	a1, a1, 4
; /rustc/ecd44958e0a21110d09862ee080d95a4ca6c52f8/library/core/src/fmt/builders.rs:236
802046cc: 91 e9        	bnez	a1, 0x802046e0 <.LBB655_13+0xc>
; /rustc/ecd44958e0a21110d09862ee080d95a4ca6c52f8/library/core/src/fmt/mod.rs:1627
802046ce: 0c 75        	ld	a1, 40(a0)
802046d0: 08 71        	ld	a0, 32(a0)
802046d2: 94 6d        	ld	a3, 24(a1)

00000000802046d4 <.LBB655_13>:
; .LBB655_13():
; /rustc/ecd44958e0a21110d09862ee080d95a4ca6c52f8/library/core/src/fmt/mod.rs:1627
802046d4: 97 75 00 00  	auipc	a1, 7
802046d8: 93 85 f5 93  	addi	a1, a1, -1729
802046dc: 09 46        	li	a2, 2
802046de: 09 a8        	j	0x802046f0 <.LBB655_14+0xa>
802046e0: 0c 75        	ld	a1, 40(a0)
802046e2: 08 71        	ld	a0, 32(a0)
802046e4: 94 6d        	ld	a3, 24(a1)

00000000802046e6 <.LBB655_14>:
; .LBB655_14():
; /rustc/ecd44958e0a21110d09862ee080d95a4ca6c52f8/library/core/src/fmt/mod.rs:1627
802046e6: 97 75 00 00  	auipc	a1, 7
802046ea: 93 85 c5 92  	addi	a1, a1, -1748
802046ee: 05 46        	li	a2, 1
802046f0: 82 96        	jalr	a3
802046f2: aa 85        	mv	a1, a0
; /rustc/ecd44958e0a21110d09862ee080d95a4ca6c52f8/library/core/src/fmt/builders.rs:239
802046f4: 33 35 b0 00  	snez	a0, a1
; /rustc/ecd44958e0a21110d09862ee080d95a4ca6c52f8/library/core/src/str/error.rs:44
802046f8: e2 70        	ld	ra, 56(sp)
802046fa: 42 74        	ld	s0, 48(sp)
802046fc: a2 74        	ld	s1, 40(sp)
802046fe: 02 79        	ld	s2, 32(sp)
80204700: 21 61        	addi	sp, sp, 64
80204702: 82 80        	ret

0000000080204704 <_ZN4core7unicode12unicode_data15grapheme_extend6lookup17h84dd396c01c41851E>:
; _ZN4core7unicode12unicode_data15grapheme_extend6lookup17h84dd396c01c41851E():
; /rustc/ecd44958e0a21110d09862ee080d95a4ca6c52f8/library/core/src/unicode/unicode_data.rs:310
80204704: 41 11        	addi	sp, sp, -16
80204706: 06 e4        	sd	ra, 8(sp)
80204708: 01 47        	li	a4, 0
; /rustc/ecd44958e0a21110d09862ee080d95a4ca6c52f8/library/core/src/unicode/unicode_data.rs:70
8020470a: 1b 16 b5 00  	slliw	a2, a0, 11
8020470e: 93 07 00 02  	li	a5, 32

0000000080204712 <.LBB685_25>:
; .LBB685_25():
80204712: 17 78 00 00  	auipc	a6, 7
80204716: 13 08 68 4a  	addi	a6, a6, 1190
8020471a: 93 06 00 02  	li	a3, 32
8020471e: 39 a0        	j	0x8020472c <.LBB685_25+0x1a>
; /rustc/ecd44958e0a21110d09862ee080d95a4ca6c52f8/library/core/src/slice/mod.rs:2423
80204720: 13 87 17 00  	addi	a4, a5, 1
; /rustc/ecd44958e0a21110d09862ee080d95a4ca6c52f8/library/core/src/slice/mod.rs:2432
80204724: b3 87 e6 40  	sub	a5, a3, a4
; /rustc/ecd44958e0a21110d09862ee080d95a4ca6c52f8/library/core/src/slice/mod.rs:2411
80204728: 63 78 d7 02  	bgeu	a4, a3, 0x80204758 <.LBB685_25+0x46>
; /rustc/ecd44958e0a21110d09862ee080d95a4ca6c52f8/library/core/src/slice/mod.rs:2412
8020472c: 93 d5 17 00  	srli	a1, a5, 1
80204730: b3 87 e5 00  	add	a5, a1, a4
; /rustc/ecd44958e0a21110d09862ee080d95a4ca6c52f8/library/core/src/ptr/const_ptr.rs:455
80204734: 93 95 27 00  	slli	a1, a5, 2
80204738: c2 95        	add	a1, a1, a6
; /rustc/ecd44958e0a21110d09862ee080d95a4ca6c52f8/library/core/src/slice/mod.rs:2417
8020473a: 8c 41        	lw	a1, 0(a1)
; /rustc/ecd44958e0a21110d09862ee080d95a4ca6c52f8/library/core/src/ops/bit.rs:476
8020473c: 9b 95 b5 00  	slliw	a1, a1, 11
; /rustc/ecd44958e0a21110d09862ee080d95a4ca6c52f8/library/core/src/slice/mod.rs:2422
80204740: e3 e0 c5 fe  	bltu	a1, a2, 0x80204720 <.LBB685_25+0xe>
; /rustc/ecd44958e0a21110d09862ee080d95a4ca6c52f8/library/core/src/slice/mod.rs:2424
80204744: 63 88 c5 00  	beq	a1, a2, 0x80204754 <.LBB685_25+0x42>
80204748: be 86        	mv	a3, a5
; /rustc/ecd44958e0a21110d09862ee080d95a4ca6c52f8/library/core/src/slice/mod.rs:2432
8020474a: b3 87 e6 40  	sub	a5, a3, a4
; /rustc/ecd44958e0a21110d09862ee080d95a4ca6c52f8/library/core/src/slice/mod.rs:2411
8020474e: e3 6f d7 fc  	bltu	a4, a3, 0x8020472c <.LBB685_25+0x1a>
80204752: 19 a0        	j	0x80204758 <.LBB685_25+0x46>
; /rustc/ecd44958e0a21110d09862ee080d95a4ca6c52f8/library/core/src/unicode/unicode_data.rs:70
80204754: 13 87 17 00  	addi	a4, a5, 1
80204758: fd 46        	li	a3, 31
; /rustc/ecd44958e0a21110d09862ee080d95a4ca6c52f8/library/core/src/unicode/unicode_data.rs:75
8020475a: 63 e7 e6 0a  	bltu	a3, a4, 0x80204808 <.LBB685_28>
8020475e: 93 17 27 00  	slli	a5, a4, 2
80204762: 13 06 30 2c  	li	a2, 707
; /rustc/ecd44958e0a21110d09862ee080d95a4ca6c52f8/library/core/src/unicode/unicode_data.rs:76
80204766: 63 08 d7 00  	beq	a4, a3, 0x80204776 <.LBB685_25+0x64>
8020476a: b3 05 f8 00  	add	a1, a6, a5
; /rustc/ecd44958e0a21110d09862ee080d95a4ca6c52f8/library/core/src/unicode/unicode_data.rs:77
8020476e: 83 e5 45 00  	lwu	a1, 4(a1)
; /rustc/ecd44958e0a21110d09862ee080d95a4ca6c52f8/library/core/src/unicode/unicode_data.rs:53
80204772: 13 d6 55 01  	srli	a2, a1, 21
; /rustc/ecd44958e0a21110d09862ee080d95a4ca6c52f8/library/core/src/num/uint_macros.rs:1597
80204776: 93 06 f7 ff  	addi	a3, a4, -1
; /rustc/ecd44958e0a21110d09862ee080d95a4ca6c52f8/library/core/src/option.rs:908
8020477a: 63 74 d7 00  	bgeu	a4, a3, 0x80204782 <.LBB685_25+0x70>
8020477e: 01 47        	li	a4, 0
80204780: 29 a8        	j	0x8020479a <.LBB685_25+0x88>
80204782: 93 05 00 02  	li	a1, 32
; /rustc/ecd44958e0a21110d09862ee080d95a4ca6c52f8/library/core/src/unicode/unicode_data.rs:82
80204786: 63 fd b6 08  	bgeu	a3, a1, 0x80204820 <.LBB685_29>
8020478a: 93 95 26 00  	slli	a1, a3, 2
8020478e: c2 95        	add	a1, a1, a6
80204790: 83 e5 05 00  	lwu	a1, 0(a1)
; /rustc/ecd44958e0a21110d09862ee080d95a4ca6c52f8/library/core/src/unicode/unicode_data.rs:49
80204794: ae 15        	slli	a1, a1, 43
80204796: 13 d7 b5 02  	srli	a4, a1, 43
8020479a: b3 85 07 01  	add	a1, a5, a6
8020479e: 83 e5 05 00  	lwu	a1, 0(a1)
802047a2: d5 81        	srli	a1, a1, 21
; /rustc/ecd44958e0a21110d09862ee080d95a4ca6c52f8/library/core/src/unicode/unicode_data.rs:86
802047a4: 93 c6 f5 ff  	not	a3, a1
802047a8: b2 96        	add	a3, a3, a2
; /rustc/ecd44958e0a21110d09862ee080d95a4ca6c52f8/library/core/src/iter/range.rs:621
802047aa: 95 ce        	beqz	a3, 0x802047e6 <.LBB685_26+0x22>
802047ac: 93 07 30 2c  	li	a5, 707
802047b0: 2e 88        	mv	a6, a1
; /rustc/ecd44958e0a21110d09862ee080d95a4ca6c52f8/library/core/src/unicode/unicode_data.rs:87
802047b2: 63 e4 b7 00  	bltu	a5, a1, 0x802047ba <.LBB685_25+0xa8>
802047b6: 13 08 30 2c  	li	a6, 707
802047ba: 81 47        	li	a5, 0
802047bc: 3b 07 e5 40  	subw	a4, a0, a4
; /rustc/ecd44958e0a21110d09862ee080d95a4ca6c52f8/library/core/src/unicode/unicode_data.rs:87
802047c0: 13 05 f6 ff  	addi	a0, a2, -1

00000000802047c4 <.LBB685_26>:
; .LBB685_26():
802047c4: 17 76 00 00  	auipc	a2, 7
802047c8: 13 06 46 47  	addi	a2, a2, 1140
; /rustc/ecd44958e0a21110d09862ee080d95a4ca6c52f8/library/core/src/unicode/unicode_data.rs:87
802047cc: 63 02 b8 02  	beq	a6, a1, 0x802047f0 <.LBB685_27>
802047d0: b3 86 c5 00  	add	a3, a1, a2
802047d4: 83 c6 06 00  	lbu	a3, 0(a3)
; /rustc/ecd44958e0a21110d09862ee080d95a4ca6c52f8/library/core/src/unicode/unicode_data.rs:88
802047d8: b5 9f        	addw	a5, a5, a3
; /rustc/ecd44958e0a21110d09862ee080d95a4ca6c52f8/library/core/src/unicode/unicode_data.rs:89
802047da: 63 66 f7 00  	bltu	a4, a5, 0x802047e6 <.LBB685_26+0x22>
; /rustc/ecd44958e0a21110d09862ee080d95a4ca6c52f8/library/core/src/unicode/unicode_data.rs:92
802047de: 85 05        	addi	a1, a1, 1
; /rustc/ecd44958e0a21110d09862ee080d95a4ca6c52f8/library/core/src/iter/range.rs:621
802047e0: e3 16 b5 fe  	bne	a0, a1, 0x802047cc <.LBB685_26+0x8>
802047e4: aa 85        	mv	a1, a0
; /rustc/ecd44958e0a21110d09862ee080d95a4ca6c52f8/library/core/src/unicode/unicode_data.rs:94
802047e6: 13 f5 15 00  	andi	a0, a1, 1
; /rustc/ecd44958e0a21110d09862ee080d95a4ca6c52f8/library/core/src/unicode/unicode_data.rs:316
802047ea: a2 60        	ld	ra, 8(sp)
802047ec: 41 01        	addi	sp, sp, 16
802047ee: 82 80        	ret

00000000802047f0 <.LBB685_27>:
; .LBB685_27():
; /rustc/ecd44958e0a21110d09862ee080d95a4ca6c52f8/library/core/src/unicode/unicode_data.rs:87
802047f0: 17 76 00 00  	auipc	a2, 7
802047f4: 13 06 06 35  	addi	a2, a2, 848
802047f8: 93 05 30 2c  	li	a1, 707
802047fc: 42 85        	mv	a0, a6
802047fe: 97 e0 ff ff  	auipc	ra, 1048574
80204802: e7 80 80 d8  	jalr	-632(ra)
80204806: 00 00        	unimp	

0000000080204808 <.LBB685_28>:
; .LBB685_28():
; /rustc/ecd44958e0a21110d09862ee080d95a4ca6c52f8/library/core/src/unicode/unicode_data.rs:75
80204808: 17 76 00 00  	auipc	a2, 7
8020480c: 13 06 06 32  	addi	a2, a2, 800
80204810: 93 05 00 02  	li	a1, 32
80204814: 3a 85        	mv	a0, a4
80204816: 97 e0 ff ff  	auipc	ra, 1048574
8020481a: e7 80 00 d7  	jalr	-656(ra)
8020481e: 00 00        	unimp	

0000000080204820 <.LBB685_29>:
; .LBB685_29():
; /rustc/ecd44958e0a21110d09862ee080d95a4ca6c52f8/library/core/src/unicode/unicode_data.rs:82
80204820: 17 76 00 00  	auipc	a2, 7
80204824: 13 06 86 33  	addi	a2, a2, 824
80204828: 93 05 00 02  	li	a1, 32
8020482c: 36 85        	mv	a0, a3
8020482e: 97 e0 ff ff  	auipc	ra, 1048574
80204832: e7 80 80 d5  	jalr	-680(ra)
80204836: 00 00        	unimp	

0000000080204838 <memcpy>:
; memcpy():
; /cargo/registry/src/github.com-1ecc6299db9ec823/compiler_builtins-0.1.71/src/macros.rs:277
80204838: 17 03 00 00  	auipc	t1, 0
8020483c: 67 00 83 00  	jr	8(t1)

0000000080204840 <_ZN17compiler_builtins3mem6memcpy17h00ae5e07cea9023aE>:
; _ZN17compiler_builtins3mem6memcpy17h00ae5e07cea9023aE():
; /cargo/registry/src/github.com-1ecc6299db9ec823/compiler_builtins-0.1.71/src/macros.rs:268
80204840: bd 46        	li	a3, 15
; /cargo/registry/src/github.com-1ecc6299db9ec823/compiler_builtins-0.1.71/src/mem/impls.rs:100
80204842: 63 fc c6 06  	bgeu	a3, a2, 0x802048ba <_ZN17compiler_builtins3mem6memcpy17h00ae5e07cea9023aE+0x7a>
; /rustc/ecd44958e0a21110d09862ee080d95a4ca6c52f8/library/core/src/num/uint_macros.rs:1226
80204846: bb 06 a0 40  	negw	a3, a0
; /cargo/registry/src/github.com-1ecc6299db9ec823/compiler_builtins-0.1.71/src/mem/impls.rs:103
8020484a: 13 f8 76 00  	andi	a6, a3, 7
; /rustc/ecd44958e0a21110d09862ee080d95a4ca6c52f8/library/core/src/ptr/mut_ptr.rs:467
8020484e: b3 03 05 01  	add	t2, a0, a6
; /cargo/registry/src/github.com-1ecc6299db9ec823/compiler_builtins-0.1.71/src/mem/impls.rs:32
80204852: 63 0c 08 00  	beqz	a6, 0x8020486a <_ZN17compiler_builtins3mem6memcpy17h00ae5e07cea9023aE+0x2a>
80204856: aa 87        	mv	a5, a0
80204858: ae 86        	mv	a3, a1
; /cargo/registry/src/github.com-1ecc6299db9ec823/compiler_builtins-0.1.71/src/mem/impls.rs:33
8020485a: 03 87 06 00  	lb	a4, 0(a3)
8020485e: 23 80 e7 00  	sb	a4, 0(a5)
; /rustc/ecd44958e0a21110d09862ee080d95a4ca6c52f8/library/core/src/ptr/mut_ptr.rs:467
80204862: 85 07        	addi	a5, a5, 1
; /rustc/ecd44958e0a21110d09862ee080d95a4ca6c52f8/library/core/src/ptr/const_ptr.rs:455
80204864: 85 06        	addi	a3, a3, 1
; /cargo/registry/src/github.com-1ecc6299db9ec823/compiler_builtins-0.1.71/src/mem/impls.rs:32
80204866: e3 ea 77 fe  	bltu	a5, t2, 0x8020485a <_ZN17compiler_builtins3mem6memcpy17h00ae5e07cea9023aE+0x1a>
; /rustc/ecd44958e0a21110d09862ee080d95a4ca6c52f8/library/core/src/ptr/const_ptr.rs:455
8020486a: b3 88 05 01  	add	a7, a1, a6
; /cargo/registry/src/github.com-1ecc6299db9ec823/compiler_builtins-0.1.71/src/mem/impls.rs:107
8020486e: 33 08 06 41  	sub	a6, a2, a6
; /cargo/registry/src/github.com-1ecc6299db9ec823/compiler_builtins-0.1.71/src/mem/impls.rs:109
80204872: 93 72 88 ff  	andi	t0, a6, -8
; /cargo/registry/src/github.com-1ecc6299db9ec823/compiler_builtins-0.1.71/src/mem/impls.rs:110
80204876: 93 f5 78 00  	andi	a1, a7, 7
8020487a: b3 86 53 00  	add	a3, t2, t0
; /cargo/registry/src/github.com-1ecc6299db9ec823/compiler_builtins-0.1.71/src/mem/impls.rs:111
8020487e: a9 c1        	beqz	a1, 0x802048c0 <_ZN17compiler_builtins3mem6memcpy17h00ae5e07cea9023aE+0x80>
; /cargo/registry/src/github.com-1ecc6299db9ec823/compiler_builtins-0.1.71/src/mem/impls.rs:72
80204880: 63 5a 50 04  	blez	t0, 0x802048d4 <_ZN17compiler_builtins3mem6memcpy17h00ae5e07cea9023aE+0x94>
80204884: 93 95 38 00  	slli	a1, a7, 3
80204888: 13 f3 85 03  	andi	t1, a1, 56
8020488c: 13 f7 88 ff  	andi	a4, a7, -8
; /cargo/registry/src/github.com-1ecc6299db9ec823/compiler_builtins-0.1.71/src/mem/impls.rs:68
80204890: 10 63        	ld	a2, 0(a4)
80204892: bb 05 b0 40  	negw	a1, a1
80204896: 13 fe 85 03  	andi	t3, a1, 56
; /cargo/registry/src/github.com-1ecc6299db9ec823/compiler_builtins-0.1.71/src/mem/impls.rs:72
8020489a: 93 07 87 00  	addi	a5, a4, 8
; /cargo/registry/src/github.com-1ecc6299db9ec823/compiler_builtins-0.1.71/src/mem/impls.rs:74
8020489e: 98 63        	ld	a4, 0(a5)
; /cargo/registry/src/github.com-1ecc6299db9ec823/compiler_builtins-0.1.71/src/mem/impls.rs:76
802048a0: 33 56 66 00  	srl	a2, a2, t1
802048a4: b3 15 c7 01  	sll	a1, a4, t3
802048a8: d1 8d        	or	a1, a1, a2
; /cargo/registry/src/github.com-1ecc6299db9ec823/compiler_builtins-0.1.71/src/mem/impls.rs:81
802048aa: 23 b0 b3 00  	sd	a1, 0(t2)
; /rustc/ecd44958e0a21110d09862ee080d95a4ca6c52f8/library/core/src/ptr/mut_ptr.rs:467
802048ae: a1 03        	addi	t2, t2, 8
; /cargo/registry/src/github.com-1ecc6299db9ec823/compiler_builtins-0.1.71/src/mem/impls.rs:72
802048b0: a1 07        	addi	a5, a5, 8
802048b2: 3a 86        	mv	a2, a4
802048b4: e3 e5 d3 fe  	bltu	t2, a3, 0x8020489e <_ZN17compiler_builtins3mem6memcpy17h00ae5e07cea9023aE+0x5e>
802048b8: 31 a8        	j	0x802048d4 <_ZN17compiler_builtins3mem6memcpy17h00ae5e07cea9023aE+0x94>
802048ba: aa 86        	mv	a3, a0
; /cargo/registry/src/github.com-1ecc6299db9ec823/compiler_builtins-0.1.71/src/mem/impls.rs:32
802048bc: 0d e2        	bnez	a2, 0x802048de <_ZN17compiler_builtins3mem6memcpy17h00ae5e07cea9023aE+0x9e>
802048be: 0d a8        	j	0x802048f0 <_ZN17compiler_builtins3mem6memcpy17h00ae5e07cea9023aE+0xb0>
; /cargo/registry/src/github.com-1ecc6299db9ec823/compiler_builtins-0.1.71/src/mem/impls.rs:45
802048c0: 63 5a 50 00  	blez	t0, 0x802048d4 <_ZN17compiler_builtins3mem6memcpy17h00ae5e07cea9023aE+0x94>
802048c4: c6 85        	mv	a1, a7
; /cargo/registry/src/github.com-1ecc6299db9ec823/compiler_builtins-0.1.71/src/mem/impls.rs:46
802048c6: 90 61        	ld	a2, 0(a1)
802048c8: 23 b0 c3 00  	sd	a2, 0(t2)
; /rustc/ecd44958e0a21110d09862ee080d95a4ca6c52f8/library/core/src/ptr/mut_ptr.rs:467
802048cc: a1 03        	addi	t2, t2, 8
802048ce: a1 05        	addi	a1, a1, 8
; /cargo/registry/src/github.com-1ecc6299db9ec823/compiler_builtins-0.1.71/src/mem/impls.rs:45
802048d0: e3 eb d3 fe  	bltu	t2, a3, 0x802048c6 <_ZN17compiler_builtins3mem6memcpy17h00ae5e07cea9023aE+0x86>
; /rustc/ecd44958e0a21110d09862ee080d95a4ca6c52f8/library/core/src/ptr/const_ptr.rs:455
802048d4: b3 85 58 00  	add	a1, a7, t0
; /cargo/registry/src/github.com-1ecc6299db9ec823/compiler_builtins-0.1.71/src/mem/impls.rs:118
802048d8: 13 76 78 00  	andi	a2, a6, 7
; /cargo/registry/src/github.com-1ecc6299db9ec823/compiler_builtins-0.1.71/src/mem/impls.rs:32
802048dc: 11 ca        	beqz	a2, 0x802048f0 <_ZN17compiler_builtins3mem6memcpy17h00ae5e07cea9023aE+0xb0>
802048de: 36 96        	add	a2, a2, a3
; /cargo/registry/src/github.com-1ecc6299db9ec823/compiler_builtins-0.1.71/src/mem/impls.rs:33
802048e0: 03 87 05 00  	lb	a4, 0(a1)
802048e4: 23 80 e6 00  	sb	a4, 0(a3)
; /rustc/ecd44958e0a21110d09862ee080d95a4ca6c52f8/library/core/src/ptr/mut_ptr.rs:467
802048e8: 85 06        	addi	a3, a3, 1
; /rustc/ecd44958e0a21110d09862ee080d95a4ca6c52f8/library/core/src/ptr/const_ptr.rs:455
802048ea: 85 05        	addi	a1, a1, 1
; /cargo/registry/src/github.com-1ecc6299db9ec823/compiler_builtins-0.1.71/src/mem/impls.rs:32
802048ec: e3 ea c6 fe  	bltu	a3, a2, 0x802048e0 <_ZN17compiler_builtins3mem6memcpy17h00ae5e07cea9023aE+0xa0>
; /cargo/registry/src/github.com-1ecc6299db9ec823/compiler_builtins-0.1.71/src/macros.rs:270
802048f0: 82 80        	ret

00000000802048f2 <_ZN17compiler_builtins3mem6memset17hbfde46396d620003E>:
; _ZN17compiler_builtins3mem6memset17hbfde46396d620003E():
; /cargo/registry/src/github.com-1ecc6299db9ec823/compiler_builtins-0.1.71/src/macros.rs:268
802048f2: bd 46        	li	a3, 15
; /cargo/registry/src/github.com-1ecc6299db9ec823/compiler_builtins-0.1.71/src/mem/impls.rs:253
802048f4: 63 f6 c6 04  	bgeu	a3, a2, 0x80204940 <.LBB2_12+0x22>
; /rustc/ecd44958e0a21110d09862ee080d95a4ca6c52f8/library/core/src/num/uint_macros.rs:1226
802048f8: bb 06 a0 40  	negw	a3, a0
; /cargo/registry/src/github.com-1ecc6299db9ec823/compiler_builtins-0.1.71/src/mem/impls.rs:256
802048fc: 9d 8a        	andi	a3, a3, 7
; /rustc/ecd44958e0a21110d09862ee080d95a4ca6c52f8/library/core/src/ptr/mut_ptr.rs:467
802048fe: 33 07 d5 00  	add	a4, a0, a3
; /cargo/registry/src/github.com-1ecc6299db9ec823/compiler_builtins-0.1.71/src/mem/impls.rs:229
80204902: 99 c6        	beqz	a3, 0x80204910 <_ZN17compiler_builtins3mem6memset17hbfde46396d620003E+0x1e>
80204904: aa 87        	mv	a5, a0
; /cargo/registry/src/github.com-1ecc6299db9ec823/compiler_builtins-0.1.71/src/mem/impls.rs:230
80204906: 23 80 b7 00  	sb	a1, 0(a5)
; /rustc/ecd44958e0a21110d09862ee080d95a4ca6c52f8/library/core/src/ptr/mut_ptr.rs:467
8020490a: 85 07        	addi	a5, a5, 1
; /cargo/registry/src/github.com-1ecc6299db9ec823/compiler_builtins-0.1.71/src/mem/impls.rs:229
8020490c: e3 ed e7 fe  	bltu	a5, a4, 0x80204906 <_ZN17compiler_builtins3mem6memset17hbfde46396d620003E+0x14>
; /cargo/registry/src/github.com-1ecc6299db9ec823/compiler_builtins-0.1.71/src/mem/impls.rs:259
80204910: 15 8e        	sub	a2, a2, a3
; /cargo/registry/src/github.com-1ecc6299db9ec823/compiler_builtins-0.1.71/src/mem/impls.rs:261
80204912: 93 77 86 ff  	andi	a5, a2, -8
; /rustc/ecd44958e0a21110d09862ee080d95a4ca6c52f8/library/core/src/ptr/mut_ptr.rs:467
80204916: b3 06 f7 00  	add	a3, a4, a5
; /cargo/registry/src/github.com-1ecc6299db9ec823/compiler_builtins-0.1.71/src/mem/impls.rs:247
8020491a: 63 50 f0 02  	blez	a5, 0x8020493a <.LBB2_12+0x1c>

000000008020491e <.LBB2_12>:
; .LBB2_12():
8020491e: 97 97 00 00  	auipc	a5, 9
80204922: 93 87 27 ef  	addi	a5, a5, -270
80204926: 03 b8 07 00  	ld	a6, 0(a5)
8020492a: 93 f7 f5 0f  	andi	a5, a1, 255
8020492e: b3 87 07 03  	mul	a5, a5, a6
; /cargo/registry/src/github.com-1ecc6299db9ec823/compiler_builtins-0.1.71/src/mem/impls.rs:248
80204932: 1c e3        	sd	a5, 0(a4)
; /rustc/ecd44958e0a21110d09862ee080d95a4ca6c52f8/library/core/src/ptr/mut_ptr.rs:467
80204934: 21 07        	addi	a4, a4, 8
; /cargo/registry/src/github.com-1ecc6299db9ec823/compiler_builtins-0.1.71/src/mem/impls.rs:247
80204936: e3 6e d7 fe  	bltu	a4, a3, 0x80204932 <.LBB2_12+0x14>
; /cargo/registry/src/github.com-1ecc6299db9ec823/compiler_builtins-0.1.71/src/mem/impls.rs:264
8020493a: 1d 8a        	andi	a2, a2, 7
; /cargo/registry/src/github.com-1ecc6299db9ec823/compiler_builtins-0.1.71/src/mem/impls.rs:229
8020493c: 01 e6        	bnez	a2, 0x80204944 <.LBB2_12+0x26>
8020493e: 09 a8        	j	0x80204950 <.LBB2_12+0x32>
80204940: aa 86        	mv	a3, a0
; /cargo/registry/src/github.com-1ecc6299db9ec823/compiler_builtins-0.1.71/src/mem/impls.rs:229
80204942: 19 c6        	beqz	a2, 0x80204950 <.LBB2_12+0x32>
80204944: 36 96        	add	a2, a2, a3
; /cargo/registry/src/github.com-1ecc6299db9ec823/compiler_builtins-0.1.71/src/mem/impls.rs:230
80204946: 23 80 b6 00  	sb	a1, 0(a3)
; /rustc/ecd44958e0a21110d09862ee080d95a4ca6c52f8/library/core/src/ptr/mut_ptr.rs:467
8020494a: 85 06        	addi	a3, a3, 1
; /cargo/registry/src/github.com-1ecc6299db9ec823/compiler_builtins-0.1.71/src/mem/impls.rs:229
8020494c: e3 ed c6 fe  	bltu	a3, a2, 0x80204946 <.LBB2_12+0x28>
; /cargo/registry/src/github.com-1ecc6299db9ec823/compiler_builtins-0.1.71/src/macros.rs:270
80204950: 82 80        	ret

0000000080204952 <memset>:
; memset():
; /cargo/registry/src/github.com-1ecc6299db9ec823/compiler_builtins-0.1.71/src/macros.rs:277
80204952: 17 03 00 00  	auipc	t1, 0
80204956: 67 00 03 fa  	jr	-96(t1)
